
ctarget:     file format elf64-x86-64


Disassembly of section .init:

0000000000400c48 <_init>:
  400c48:	48 83 ec 08          	sub    $0x8,%rsp
  400c4c:	48 8b 05 a5 43 20 00 	mov    0x2043a5(%rip),%rax        # 604ff8 <__gmon_start__>
  400c53:	48 85 c0             	test   %rax,%rax
  400c56:	74 05                	je     400c5d <_init+0x15>
  400c58:	e8 43 02 00 00       	callq  400ea0 <__gmon_start__@plt>
  400c5d:	48 83 c4 08          	add    $0x8,%rsp
  400c61:	c3                   	retq   

Disassembly of section .plt:

0000000000400c70 <.plt>:
  400c70:	ff 35 92 43 20 00    	pushq  0x204392(%rip)        # 605008 <_GLOBAL_OFFSET_TABLE_+0x8>
  400c76:	ff 25 94 43 20 00    	jmpq   *0x204394(%rip)        # 605010 <_GLOBAL_OFFSET_TABLE_+0x10>
  400c7c:	0f 1f 40 00          	nopl   0x0(%rax)

0000000000400c80 <strcasecmp@plt>:
  400c80:	ff 25 92 43 20 00    	jmpq   *0x204392(%rip)        # 605018 <strcasecmp@GLIBC_2.2.5>
  400c86:	68 00 00 00 00       	pushq  $0x0
  400c8b:	e9 e0 ff ff ff       	jmpq   400c70 <.plt>

0000000000400c90 <__errno_location@plt>:
  400c90:	ff 25 8a 43 20 00    	jmpq   *0x20438a(%rip)        # 605020 <__errno_location@GLIBC_2.2.5>
  400c96:	68 01 00 00 00       	pushq  $0x1
  400c9b:	e9 d0 ff ff ff       	jmpq   400c70 <.plt>

0000000000400ca0 <srandom@plt>:
  400ca0:	ff 25 82 43 20 00    	jmpq   *0x204382(%rip)        # 605028 <srandom@GLIBC_2.2.5>
  400ca6:	68 02 00 00 00       	pushq  $0x2
  400cab:	e9 c0 ff ff ff       	jmpq   400c70 <.plt>

0000000000400cb0 <strncmp@plt>:
  400cb0:	ff 25 7a 43 20 00    	jmpq   *0x20437a(%rip)        # 605030 <strncmp@GLIBC_2.2.5>
  400cb6:	68 03 00 00 00       	pushq  $0x3
  400cbb:	e9 b0 ff ff ff       	jmpq   400c70 <.plt>

0000000000400cc0 <strcpy@plt>:
  400cc0:	ff 25 72 43 20 00    	jmpq   *0x204372(%rip)        # 605038 <strcpy@GLIBC_2.2.5>
  400cc6:	68 04 00 00 00       	pushq  $0x4
  400ccb:	e9 a0 ff ff ff       	jmpq   400c70 <.plt>

0000000000400cd0 <puts@plt>:
  400cd0:	ff 25 6a 43 20 00    	jmpq   *0x20436a(%rip)        # 605040 <puts@GLIBC_2.2.5>
  400cd6:	68 05 00 00 00       	pushq  $0x5
  400cdb:	e9 90 ff ff ff       	jmpq   400c70 <.plt>

0000000000400ce0 <write@plt>:
  400ce0:	ff 25 62 43 20 00    	jmpq   *0x204362(%rip)        # 605048 <write@GLIBC_2.2.5>
  400ce6:	68 06 00 00 00       	pushq  $0x6
  400ceb:	e9 80 ff ff ff       	jmpq   400c70 <.plt>

0000000000400cf0 <__stack_chk_fail@plt>:
  400cf0:	ff 25 5a 43 20 00    	jmpq   *0x20435a(%rip)        # 605050 <__stack_chk_fail@GLIBC_2.4>
  400cf6:	68 07 00 00 00       	pushq  $0x7
  400cfb:	e9 70 ff ff ff       	jmpq   400c70 <.plt>

0000000000400d00 <mmap@plt>:
  400d00:	ff 25 52 43 20 00    	jmpq   *0x204352(%rip)        # 605058 <mmap@GLIBC_2.2.5>
  400d06:	68 08 00 00 00       	pushq  $0x8
  400d0b:	e9 60 ff ff ff       	jmpq   400c70 <.plt>

0000000000400d10 <memset@plt>:
  400d10:	ff 25 4a 43 20 00    	jmpq   *0x20434a(%rip)        # 605060 <memset@GLIBC_2.2.5>
  400d16:	68 09 00 00 00       	pushq  $0x9
  400d1b:	e9 50 ff ff ff       	jmpq   400c70 <.plt>

0000000000400d20 <alarm@plt>:
  400d20:	ff 25 42 43 20 00    	jmpq   *0x204342(%rip)        # 605068 <alarm@GLIBC_2.2.5>
  400d26:	68 0a 00 00 00       	pushq  $0xa
  400d2b:	e9 40 ff ff ff       	jmpq   400c70 <.plt>

0000000000400d30 <close@plt>:
  400d30:	ff 25 3a 43 20 00    	jmpq   *0x20433a(%rip)        # 605070 <close@GLIBC_2.2.5>
  400d36:	68 0b 00 00 00       	pushq  $0xb
  400d3b:	e9 30 ff ff ff       	jmpq   400c70 <.plt>

0000000000400d40 <read@plt>:
  400d40:	ff 25 32 43 20 00    	jmpq   *0x204332(%rip)        # 605078 <read@GLIBC_2.2.5>
  400d46:	68 0c 00 00 00       	pushq  $0xc
  400d4b:	e9 20 ff ff ff       	jmpq   400c70 <.plt>

0000000000400d50 <__libc_start_main@plt>:
  400d50:	ff 25 2a 43 20 00    	jmpq   *0x20432a(%rip)        # 605080 <__libc_start_main@GLIBC_2.2.5>
  400d56:	68 0d 00 00 00       	pushq  $0xd
  400d5b:	e9 10 ff ff ff       	jmpq   400c70 <.plt>

0000000000400d60 <signal@plt>:
  400d60:	ff 25 22 43 20 00    	jmpq   *0x204322(%rip)        # 605088 <signal@GLIBC_2.2.5>
  400d66:	68 0e 00 00 00       	pushq  $0xe
  400d6b:	e9 00 ff ff ff       	jmpq   400c70 <.plt>

0000000000400d70 <gethostbyname@plt>:
  400d70:	ff 25 1a 43 20 00    	jmpq   *0x20431a(%rip)        # 605090 <gethostbyname@GLIBC_2.2.5>
  400d76:	68 0f 00 00 00       	pushq  $0xf
  400d7b:	e9 f0 fe ff ff       	jmpq   400c70 <.plt>

0000000000400d80 <__memmove_chk@plt>:
  400d80:	ff 25 12 43 20 00    	jmpq   *0x204312(%rip)        # 605098 <__memmove_chk@GLIBC_2.3.4>
  400d86:	68 10 00 00 00       	pushq  $0x10
  400d8b:	e9 e0 fe ff ff       	jmpq   400c70 <.plt>

0000000000400d90 <strtol@plt>:
  400d90:	ff 25 0a 43 20 00    	jmpq   *0x20430a(%rip)        # 6050a0 <strtol@GLIBC_2.2.5>
  400d96:	68 11 00 00 00       	pushq  $0x11
  400d9b:	e9 d0 fe ff ff       	jmpq   400c70 <.plt>

0000000000400da0 <memcpy@plt>:
  400da0:	ff 25 02 43 20 00    	jmpq   *0x204302(%rip)        # 6050a8 <memcpy@GLIBC_2.14>
  400da6:	68 12 00 00 00       	pushq  $0x12
  400dab:	e9 c0 fe ff ff       	jmpq   400c70 <.plt>

0000000000400db0 <time@plt>:
  400db0:	ff 25 fa 42 20 00    	jmpq   *0x2042fa(%rip)        # 6050b0 <time@GLIBC_2.2.5>
  400db6:	68 13 00 00 00       	pushq  $0x13
  400dbb:	e9 b0 fe ff ff       	jmpq   400c70 <.plt>

0000000000400dc0 <random@plt>:
  400dc0:	ff 25 f2 42 20 00    	jmpq   *0x2042f2(%rip)        # 6050b8 <random@GLIBC_2.2.5>
  400dc6:	68 14 00 00 00       	pushq  $0x14
  400dcb:	e9 a0 fe ff ff       	jmpq   400c70 <.plt>

0000000000400dd0 <_IO_getc@plt>:
  400dd0:	ff 25 ea 42 20 00    	jmpq   *0x2042ea(%rip)        # 6050c0 <_IO_getc@GLIBC_2.2.5>
  400dd6:	68 15 00 00 00       	pushq  $0x15
  400ddb:	e9 90 fe ff ff       	jmpq   400c70 <.plt>

0000000000400de0 <__isoc99_sscanf@plt>:
  400de0:	ff 25 e2 42 20 00    	jmpq   *0x2042e2(%rip)        # 6050c8 <__isoc99_sscanf@GLIBC_2.7>
  400de6:	68 16 00 00 00       	pushq  $0x16
  400deb:	e9 80 fe ff ff       	jmpq   400c70 <.plt>

0000000000400df0 <munmap@plt>:
  400df0:	ff 25 da 42 20 00    	jmpq   *0x2042da(%rip)        # 6050d0 <munmap@GLIBC_2.2.5>
  400df6:	68 17 00 00 00       	pushq  $0x17
  400dfb:	e9 70 fe ff ff       	jmpq   400c70 <.plt>

0000000000400e00 <__printf_chk@plt>:
  400e00:	ff 25 d2 42 20 00    	jmpq   *0x2042d2(%rip)        # 6050d8 <__printf_chk@GLIBC_2.3.4>
  400e06:	68 18 00 00 00       	pushq  $0x18
  400e0b:	e9 60 fe ff ff       	jmpq   400c70 <.plt>

0000000000400e10 <fopen@plt>:
  400e10:	ff 25 ca 42 20 00    	jmpq   *0x2042ca(%rip)        # 6050e0 <fopen@GLIBC_2.2.5>
  400e16:	68 19 00 00 00       	pushq  $0x19
  400e1b:	e9 50 fe ff ff       	jmpq   400c70 <.plt>

0000000000400e20 <getopt@plt>:
  400e20:	ff 25 c2 42 20 00    	jmpq   *0x2042c2(%rip)        # 6050e8 <getopt@GLIBC_2.2.5>
  400e26:	68 1a 00 00 00       	pushq  $0x1a
  400e2b:	e9 40 fe ff ff       	jmpq   400c70 <.plt>

0000000000400e30 <strtoul@plt>:
  400e30:	ff 25 ba 42 20 00    	jmpq   *0x2042ba(%rip)        # 6050f0 <strtoul@GLIBC_2.2.5>
  400e36:	68 1b 00 00 00       	pushq  $0x1b
  400e3b:	e9 30 fe ff ff       	jmpq   400c70 <.plt>

0000000000400e40 <gethostname@plt>:
  400e40:	ff 25 b2 42 20 00    	jmpq   *0x2042b2(%rip)        # 6050f8 <gethostname@GLIBC_2.2.5>
  400e46:	68 1c 00 00 00       	pushq  $0x1c
  400e4b:	e9 20 fe ff ff       	jmpq   400c70 <.plt>

0000000000400e50 <exit@plt>:
  400e50:	ff 25 aa 42 20 00    	jmpq   *0x2042aa(%rip)        # 605100 <exit@GLIBC_2.2.5>
  400e56:	68 1d 00 00 00       	pushq  $0x1d
  400e5b:	e9 10 fe ff ff       	jmpq   400c70 <.plt>

0000000000400e60 <connect@plt>:
  400e60:	ff 25 a2 42 20 00    	jmpq   *0x2042a2(%rip)        # 605108 <connect@GLIBC_2.2.5>
  400e66:	68 1e 00 00 00       	pushq  $0x1e
  400e6b:	e9 00 fe ff ff       	jmpq   400c70 <.plt>

0000000000400e70 <__fprintf_chk@plt>:
  400e70:	ff 25 9a 42 20 00    	jmpq   *0x20429a(%rip)        # 605110 <__fprintf_chk@GLIBC_2.3.4>
  400e76:	68 1f 00 00 00       	pushq  $0x1f
  400e7b:	e9 f0 fd ff ff       	jmpq   400c70 <.plt>

0000000000400e80 <__sprintf_chk@plt>:
  400e80:	ff 25 92 42 20 00    	jmpq   *0x204292(%rip)        # 605118 <__sprintf_chk@GLIBC_2.3.4>
  400e86:	68 20 00 00 00       	pushq  $0x20
  400e8b:	e9 e0 fd ff ff       	jmpq   400c70 <.plt>

0000000000400e90 <socket@plt>:
  400e90:	ff 25 8a 42 20 00    	jmpq   *0x20428a(%rip)        # 605120 <socket@GLIBC_2.2.5>
  400e96:	68 21 00 00 00       	pushq  $0x21
  400e9b:	e9 d0 fd ff ff       	jmpq   400c70 <.plt>

Disassembly of section .plt.got:

0000000000400ea0 <__gmon_start__@plt>:
  400ea0:	ff 25 52 41 20 00    	jmpq   *0x204152(%rip)        # 604ff8 <__gmon_start__>
  400ea6:	66 90                	xchg   %ax,%ax

Disassembly of section .text:

0000000000400eb0 <_start>:
  400eb0:	31 ed                	xor    %ebp,%ebp
  400eb2:	49 89 d1             	mov    %rdx,%r9
  400eb5:	5e                   	pop    %rsi
  400eb6:	48 89 e2             	mov    %rsp,%rdx
  400eb9:	48 83 e4 f0          	and    $0xfffffffffffffff0,%rsp
  400ebd:	50                   	push   %rax
  400ebe:	54                   	push   %rsp
  400ebf:	49 c7 c0 c0 2e 40 00 	mov    $0x402ec0,%r8
  400ec6:	48 c7 c1 50 2e 40 00 	mov    $0x402e50,%rcx
  400ecd:	48 c7 c7 b5 11 40 00 	mov    $0x4011b5,%rdi
  400ed4:	e8 77 fe ff ff       	callq  400d50 <__libc_start_main@plt>
  400ed9:	f4                   	hlt    
  400eda:	66 0f 1f 44 00 00    	nopw   0x0(%rax,%rax,1)

0000000000400ee0 <deregister_tm_clones>:
  400ee0:	b8 b7 54 60 00       	mov    $0x6054b7,%eax
  400ee5:	55                   	push   %rbp
  400ee6:	48 2d b0 54 60 00    	sub    $0x6054b0,%rax
  400eec:	48 83 f8 0e          	cmp    $0xe,%rax
  400ef0:	48 89 e5             	mov    %rsp,%rbp
  400ef3:	76 1b                	jbe    400f10 <deregister_tm_clones+0x30>
  400ef5:	b8 00 00 00 00       	mov    $0x0,%eax
  400efa:	48 85 c0             	test   %rax,%rax
  400efd:	74 11                	je     400f10 <deregister_tm_clones+0x30>
  400eff:	5d                   	pop    %rbp
  400f00:	bf b0 54 60 00       	mov    $0x6054b0,%edi
  400f05:	ff e0                	jmpq   *%rax
  400f07:	66 0f 1f 84 00 00 00 	nopw   0x0(%rax,%rax,1)
  400f0e:	00 00 
  400f10:	5d                   	pop    %rbp
  400f11:	c3                   	retq   
  400f12:	0f 1f 40 00          	nopl   0x0(%rax)
  400f16:	66 2e 0f 1f 84 00 00 	nopw   %cs:0x0(%rax,%rax,1)
  400f1d:	00 00 00 

0000000000400f20 <register_tm_clones>:
  400f20:	be b0 54 60 00       	mov    $0x6054b0,%esi
  400f25:	55                   	push   %rbp
  400f26:	48 81 ee b0 54 60 00 	sub    $0x6054b0,%rsi
  400f2d:	48 c1 fe 03          	sar    $0x3,%rsi
  400f31:	48 89 e5             	mov    %rsp,%rbp
  400f34:	48 89 f0             	mov    %rsi,%rax
  400f37:	48 c1 e8 3f          	shr    $0x3f,%rax
  400f3b:	48 01 c6             	add    %rax,%rsi
  400f3e:	48 d1 fe             	sar    %rsi
  400f41:	74 15                	je     400f58 <register_tm_clones+0x38>
  400f43:	b8 00 00 00 00       	mov    $0x0,%eax
  400f48:	48 85 c0             	test   %rax,%rax
  400f4b:	74 0b                	je     400f58 <register_tm_clones+0x38>
  400f4d:	5d                   	pop    %rbp
  400f4e:	bf b0 54 60 00       	mov    $0x6054b0,%edi
  400f53:	ff e0                	jmpq   *%rax
  400f55:	0f 1f 00             	nopl   (%rax)
  400f58:	5d                   	pop    %rbp
  400f59:	c3                   	retq   
  400f5a:	66 0f 1f 44 00 00    	nopw   0x0(%rax,%rax,1)

0000000000400f60 <__do_global_dtors_aux>:
  400f60:	80 3d 81 45 20 00 00 	cmpb   $0x0,0x204581(%rip)        # 6054e8 <completed.7585>
  400f67:	75 11                	jne    400f7a <__do_global_dtors_aux+0x1a>
  400f69:	55                   	push   %rbp
  400f6a:	48 89 e5             	mov    %rsp,%rbp
  400f6d:	e8 6e ff ff ff       	callq  400ee0 <deregister_tm_clones>
  400f72:	5d                   	pop    %rbp
  400f73:	c6 05 6e 45 20 00 01 	movb   $0x1,0x20456e(%rip)        # 6054e8 <completed.7585>
  400f7a:	f3 c3                	repz retq 
  400f7c:	0f 1f 40 00          	nopl   0x0(%rax)

0000000000400f80 <frame_dummy>:
  400f80:	bf 20 4e 60 00       	mov    $0x604e20,%edi
  400f85:	48 83 3f 00          	cmpq   $0x0,(%rdi)
  400f89:	75 05                	jne    400f90 <frame_dummy+0x10>
  400f8b:	eb 93                	jmp    400f20 <register_tm_clones>
  400f8d:	0f 1f 00             	nopl   (%rax)
  400f90:	b8 00 00 00 00       	mov    $0x0,%eax
  400f95:	48 85 c0             	test   %rax,%rax
  400f98:	74 f1                	je     400f8b <frame_dummy+0xb>
  400f9a:	55                   	push   %rbp
  400f9b:	48 89 e5             	mov    %rsp,%rbp
  400f9e:	ff d0                	callq  *%rax
  400fa0:	5d                   	pop    %rbp
  400fa1:	e9 7a ff ff ff       	jmpq   400f20 <register_tm_clones>

0000000000400fa6 <usage>:
  400fa6:	48 83 ec 08          	sub    $0x8,%rsp
  400faa:	48 89 fa             	mov    %rdi,%rdx
  400fad:	83 3d 74 45 20 00 00 	cmpl   $0x0,0x204574(%rip)        # 605528 <is_checker>
  400fb4:	74 3e                	je     400ff4 <usage+0x4e>
  400fb6:	be d8 2e 40 00       	mov    $0x402ed8,%esi
  400fbb:	bf 01 00 00 00       	mov    $0x1,%edi
  400fc0:	b8 00 00 00 00       	mov    $0x0,%eax
  400fc5:	e8 36 fe ff ff       	callq  400e00 <__printf_chk@plt>
  400fca:	bf 10 2f 40 00       	mov    $0x402f10,%edi
  400fcf:	e8 fc fc ff ff       	callq  400cd0 <puts@plt>
  400fd4:	bf 88 30 40 00       	mov    $0x403088,%edi
  400fd9:	e8 f2 fc ff ff       	callq  400cd0 <puts@plt>
  400fde:	bf 38 2f 40 00       	mov    $0x402f38,%edi
  400fe3:	e8 e8 fc ff ff       	callq  400cd0 <puts@plt>
  400fe8:	bf a2 30 40 00       	mov    $0x4030a2,%edi
  400fed:	e8 de fc ff ff       	callq  400cd0 <puts@plt>
  400ff2:	eb 32                	jmp    401026 <usage+0x80>
  400ff4:	be be 30 40 00       	mov    $0x4030be,%esi
  400ff9:	bf 01 00 00 00       	mov    $0x1,%edi
  400ffe:	b8 00 00 00 00       	mov    $0x0,%eax
  401003:	e8 f8 fd ff ff       	callq  400e00 <__printf_chk@plt>
  401008:	bf 60 2f 40 00       	mov    $0x402f60,%edi
  40100d:	e8 be fc ff ff       	callq  400cd0 <puts@plt>
  401012:	bf 88 2f 40 00       	mov    $0x402f88,%edi
  401017:	e8 b4 fc ff ff       	callq  400cd0 <puts@plt>
  40101c:	bf dc 30 40 00       	mov    $0x4030dc,%edi
  401021:	e8 aa fc ff ff       	callq  400cd0 <puts@plt>
  401026:	bf 00 00 00 00       	mov    $0x0,%edi
  40102b:	e8 20 fe ff ff       	callq  400e50 <exit@plt>

0000000000401030 <initialize_target>:
  401030:	55                   	push   %rbp
  401031:	53                   	push   %rbx
  401032:	48 81 ec 18 21 00 00 	sub    $0x2118,%rsp
  401039:	89 f5                	mov    %esi,%ebp
  40103b:	64 48 8b 04 25 28 00 	mov    %fs:0x28,%rax
  401042:	00 00 
  401044:	48 89 84 24 08 21 00 	mov    %rax,0x2108(%rsp)
  40104b:	00 
  40104c:	31 c0                	xor    %eax,%eax
  40104e:	89 3d c4 44 20 00    	mov    %edi,0x2044c4(%rip)        # 605518 <check_level>
  401054:	8b 3d 0e 41 20 00    	mov    0x20410e(%rip),%edi        # 605168 <target_id>
  40105a:	e8 ce 1d 00 00       	callq  402e2d <gencookie>
  40105f:	89 05 bf 44 20 00    	mov    %eax,0x2044bf(%rip)        # 605524 <cookie>
  401065:	89 c7                	mov    %eax,%edi
  401067:	e8 c1 1d 00 00       	callq  402e2d <gencookie>
  40106c:	89 05 ae 44 20 00    	mov    %eax,0x2044ae(%rip)        # 605520 <authkey>
  401072:	8b 05 f0 40 20 00    	mov    0x2040f0(%rip),%eax        # 605168 <target_id>
  401078:	8d 78 01             	lea    0x1(%rax),%edi
  40107b:	e8 20 fc ff ff       	callq  400ca0 <srandom@plt>
  401080:	e8 3b fd ff ff       	callq  400dc0 <random@plt>
  401085:	89 c7                	mov    %eax,%edi
  401087:	e8 03 03 00 00       	callq  40138f <scramble>
  40108c:	89 c3                	mov    %eax,%ebx
  40108e:	85 ed                	test   %ebp,%ebp
  401090:	74 18                	je     4010aa <initialize_target+0x7a>
  401092:	bf 00 00 00 00       	mov    $0x0,%edi
  401097:	e8 14 fd ff ff       	callq  400db0 <time@plt>
  40109c:	89 c7                	mov    %eax,%edi
  40109e:	e8 fd fb ff ff       	callq  400ca0 <srandom@plt>
  4010a3:	e8 18 fd ff ff       	callq  400dc0 <random@plt>
  4010a8:	eb 05                	jmp    4010af <initialize_target+0x7f>
  4010aa:	b8 00 00 00 00       	mov    $0x0,%eax
  4010af:	01 c3                	add    %eax,%ebx
  4010b1:	0f b7 db             	movzwl %bx,%ebx
  4010b4:	8d 04 dd 00 01 00 00 	lea    0x100(,%rbx,8),%eax
  4010bb:	89 c0                	mov    %eax,%eax
  4010bd:	48 89 05 dc 43 20 00 	mov    %rax,0x2043dc(%rip)        # 6054a0 <buf_offset>
  4010c4:	c6 05 7d 50 20 00 63 	movb   $0x63,0x20507d(%rip)        # 606148 <target_prefix>
  4010cb:	83 3d d6 43 20 00 00 	cmpl   $0x0,0x2043d6(%rip)        # 6054a8 <notify>
  4010d2:	0f 84 bb 00 00 00    	je     401193 <initialize_target+0x163>
  4010d8:	83 3d 49 44 20 00 00 	cmpl   $0x0,0x204449(%rip)        # 605528 <is_checker>
  4010df:	0f 85 ae 00 00 00    	jne    401193 <initialize_target+0x163>
  4010e5:	be 00 01 00 00       	mov    $0x100,%esi
  4010ea:	48 89 e7             	mov    %rsp,%rdi
  4010ed:	e8 4e fd ff ff       	callq  400e40 <gethostname@plt>
  4010f2:	85 c0                	test   %eax,%eax
  4010f4:	74 25                	je     40111b <initialize_target+0xeb>
  4010f6:	bf b8 2f 40 00       	mov    $0x402fb8,%edi
  4010fb:	e8 d0 fb ff ff       	callq  400cd0 <puts@plt>
  401100:	bf 08 00 00 00       	mov    $0x8,%edi
  401105:	e8 46 fd ff ff       	callq  400e50 <exit@plt>
  40110a:	48 89 e6             	mov    %rsp,%rsi
  40110d:	e8 6e fb ff ff       	callq  400c80 <strcasecmp@plt>
  401112:	85 c0                	test   %eax,%eax
  401114:	74 21                	je     401137 <initialize_target+0x107>
  401116:	83 c3 01             	add    $0x1,%ebx
  401119:	eb 05                	jmp    401120 <initialize_target+0xf0>
  40111b:	bb 00 00 00 00       	mov    $0x0,%ebx
  401120:	48 63 c3             	movslq %ebx,%rax
  401123:	48 8b 3c c5 80 51 60 	mov    0x605180(,%rax,8),%rdi
  40112a:	00 
  40112b:	48 85 ff             	test   %rdi,%rdi
  40112e:	75 da                	jne    40110a <initialize_target+0xda>
  401130:	b8 00 00 00 00       	mov    $0x0,%eax
  401135:	eb 05                	jmp    40113c <initialize_target+0x10c>
  401137:	b8 01 00 00 00       	mov    $0x1,%eax
  40113c:	85 c0                	test   %eax,%eax
  40113e:	75 1c                	jne    40115c <initialize_target+0x12c>
  401140:	48 89 e2             	mov    %rsp,%rdx
  401143:	be f0 2f 40 00       	mov    $0x402ff0,%esi
  401148:	bf 01 00 00 00       	mov    $0x1,%edi
  40114d:	e8 ae fc ff ff       	callq  400e00 <__printf_chk@plt>
  401152:	bf 08 00 00 00       	mov    $0x8,%edi
  401157:	e8 f4 fc ff ff       	callq  400e50 <exit@plt>
  40115c:	48 8d bc 24 00 01 00 	lea    0x100(%rsp),%rdi
  401163:	00 
  401164:	e8 2e 1a 00 00       	callq  402b97 <init_driver>
  401169:	85 c0                	test   %eax,%eax
  40116b:	79 26                	jns    401193 <initialize_target+0x163>
  40116d:	48 8d 94 24 00 01 00 	lea    0x100(%rsp),%rdx
  401174:	00 
  401175:	be 30 30 40 00       	mov    $0x403030,%esi
  40117a:	bf 01 00 00 00       	mov    $0x1,%edi
  40117f:	b8 00 00 00 00       	mov    $0x0,%eax
  401184:	e8 77 fc ff ff       	callq  400e00 <__printf_chk@plt>
  401189:	bf 08 00 00 00       	mov    $0x8,%edi
  40118e:	e8 bd fc ff ff       	callq  400e50 <exit@plt>
  401193:	48 8b 84 24 08 21 00 	mov    0x2108(%rsp),%rax
  40119a:	00 
  40119b:	64 48 33 04 25 28 00 	xor    %fs:0x28,%rax
  4011a2:	00 00 
  4011a4:	74 05                	je     4011ab <initialize_target+0x17b>
  4011a6:	e8 45 fb ff ff       	callq  400cf0 <__stack_chk_fail@plt>
  4011ab:	48 81 c4 18 21 00 00 	add    $0x2118,%rsp
  4011b2:	5b                   	pop    %rbx
  4011b3:	5d                   	pop    %rbp
  4011b4:	c3                   	retq   

00000000004011b5 <main>:
  4011b5:	41 56                	push   %r14
  4011b7:	41 55                	push   %r13
  4011b9:	41 54                	push   %r12
  4011bb:	55                   	push   %rbp
  4011bc:	53                   	push   %rbx
  4011bd:	41 89 fc             	mov    %edi,%r12d
  4011c0:	48 89 f3             	mov    %rsi,%rbx
  4011c3:	be d2 1e 40 00       	mov    $0x401ed2,%esi
  4011c8:	bf 0b 00 00 00       	mov    $0xb,%edi
  4011cd:	e8 8e fb ff ff       	callq  400d60 <signal@plt>
  4011d2:	be 84 1e 40 00       	mov    $0x401e84,%esi
  4011d7:	bf 07 00 00 00       	mov    $0x7,%edi
  4011dc:	e8 7f fb ff ff       	callq  400d60 <signal@plt>
  4011e1:	be 20 1f 40 00       	mov    $0x401f20,%esi
  4011e6:	bf 04 00 00 00       	mov    $0x4,%edi
  4011eb:	e8 70 fb ff ff       	callq  400d60 <signal@plt>
  4011f0:	83 3d 31 43 20 00 00 	cmpl   $0x0,0x204331(%rip)        # 605528 <is_checker>
  4011f7:	74 20                	je     401219 <main+0x64>
  4011f9:	be 6e 1f 40 00       	mov    $0x401f6e,%esi
  4011fe:	bf 0e 00 00 00       	mov    $0xe,%edi
  401203:	e8 58 fb ff ff       	callq  400d60 <signal@plt>
  401208:	bf 05 00 00 00       	mov    $0x5,%edi
  40120d:	e8 0e fb ff ff       	callq  400d20 <alarm@plt>
  401212:	bd fa 30 40 00       	mov    $0x4030fa,%ebp
  401217:	eb 05                	jmp    40121e <main+0x69>
  401219:	bd f5 30 40 00       	mov    $0x4030f5,%ebp
  40121e:	48 8b 05 9b 42 20 00 	mov    0x20429b(%rip),%rax        # 6054c0 <stdin@@GLIBC_2.2.5>
  401225:	48 89 05 e4 42 20 00 	mov    %rax,0x2042e4(%rip)        # 605510 <infile>
  40122c:	41 bd 00 00 00 00    	mov    $0x0,%r13d
  401232:	41 be 00 00 00 00    	mov    $0x0,%r14d
  401238:	e9 c6 00 00 00       	jmpq   401303 <main+0x14e>
  40123d:	83 e8 61             	sub    $0x61,%eax
  401240:	3c 10                	cmp    $0x10,%al
  401242:	0f 87 9c 00 00 00    	ja     4012e4 <main+0x12f>
  401248:	0f b6 c0             	movzbl %al,%eax
  40124b:	ff 24 c5 40 31 40 00 	jmpq   *0x403140(,%rax,8)
  401252:	48 8b 3b             	mov    (%rbx),%rdi
  401255:	e8 4c fd ff ff       	callq  400fa6 <usage>
  40125a:	be 0d 33 40 00       	mov    $0x40330d,%esi
  40125f:	48 8b 3d 62 42 20 00 	mov    0x204262(%rip),%rdi        # 6054c8 <optarg@@GLIBC_2.2.5>
  401266:	e8 a5 fb ff ff       	callq  400e10 <fopen@plt>
  40126b:	48 89 05 9e 42 20 00 	mov    %rax,0x20429e(%rip)        # 605510 <infile>
  401272:	48 85 c0             	test   %rax,%rax
  401275:	0f 85 88 00 00 00    	jne    401303 <main+0x14e>
  40127b:	48 8b 0d 46 42 20 00 	mov    0x204246(%rip),%rcx        # 6054c8 <optarg@@GLIBC_2.2.5>
  401282:	ba 02 31 40 00       	mov    $0x403102,%edx
  401287:	be 01 00 00 00       	mov    $0x1,%esi
  40128c:	48 8b 3d 4d 42 20 00 	mov    0x20424d(%rip),%rdi        # 6054e0 <stderr@@GLIBC_2.2.5>
  401293:	e8 d8 fb ff ff       	callq  400e70 <__fprintf_chk@plt>
  401298:	b8 01 00 00 00       	mov    $0x1,%eax
  40129d:	e9 e4 00 00 00       	jmpq   401386 <main+0x1d1>
  4012a2:	ba 10 00 00 00       	mov    $0x10,%edx
  4012a7:	be 00 00 00 00       	mov    $0x0,%esi
  4012ac:	48 8b 3d 15 42 20 00 	mov    0x204215(%rip),%rdi        # 6054c8 <optarg@@GLIBC_2.2.5>
  4012b3:	e8 78 fb ff ff       	callq  400e30 <strtoul@plt>
  4012b8:	41 89 c6             	mov    %eax,%r14d
  4012bb:	eb 46                	jmp    401303 <main+0x14e>
  4012bd:	ba 0a 00 00 00       	mov    $0xa,%edx
  4012c2:	be 00 00 00 00       	mov    $0x0,%esi
  4012c7:	48 8b 3d fa 41 20 00 	mov    0x2041fa(%rip),%rdi        # 6054c8 <optarg@@GLIBC_2.2.5>
  4012ce:	e8 bd fa ff ff       	callq  400d90 <strtol@plt>
  4012d3:	41 89 c5             	mov    %eax,%r13d
  4012d6:	eb 2b                	jmp    401303 <main+0x14e>
  4012d8:	c7 05 c6 41 20 00 00 	movl   $0x0,0x2041c6(%rip)        # 6054a8 <notify>
  4012df:	00 00 00 
  4012e2:	eb 1f                	jmp    401303 <main+0x14e>
  4012e4:	0f be d2             	movsbl %dl,%edx
  4012e7:	be 1f 31 40 00       	mov    $0x40311f,%esi
  4012ec:	bf 01 00 00 00       	mov    $0x1,%edi
  4012f1:	b8 00 00 00 00       	mov    $0x0,%eax
  4012f6:	e8 05 fb ff ff       	callq  400e00 <__printf_chk@plt>
  4012fb:	48 8b 3b             	mov    (%rbx),%rdi
  4012fe:	e8 a3 fc ff ff       	callq  400fa6 <usage>
  401303:	48 89 ea             	mov    %rbp,%rdx
  401306:	48 89 de             	mov    %rbx,%rsi
  401309:	44 89 e7             	mov    %r12d,%edi
  40130c:	e8 0f fb ff ff       	callq  400e20 <getopt@plt>
  401311:	89 c2                	mov    %eax,%edx
  401313:	3c ff                	cmp    $0xff,%al
  401315:	0f 85 22 ff ff ff    	jne    40123d <main+0x88>
  40131b:	be 00 00 00 00       	mov    $0x0,%esi
  401320:	44 89 ef             	mov    %r13d,%edi
  401323:	e8 08 fd ff ff       	callq  401030 <initialize_target>
  401328:	83 3d f9 41 20 00 00 	cmpl   $0x0,0x2041f9(%rip)        # 605528 <is_checker>
  40132f:	74 2a                	je     40135b <main+0x1a6>
  401331:	44 3b 35 e8 41 20 00 	cmp    0x2041e8(%rip),%r14d        # 605520 <authkey>
  401338:	74 21                	je     40135b <main+0x1a6>
  40133a:	44 89 f2             	mov    %r14d,%edx
  40133d:	be 58 30 40 00       	mov    $0x403058,%esi
  401342:	bf 01 00 00 00       	mov    $0x1,%edi
  401347:	b8 00 00 00 00       	mov    $0x0,%eax
  40134c:	e8 af fa ff ff       	callq  400e00 <__printf_chk@plt>
  401351:	b8 00 00 00 00       	mov    $0x0,%eax
  401356:	e8 ab 07 00 00       	callq  401b06 <check_fail>
  40135b:	8b 15 c3 41 20 00    	mov    0x2041c3(%rip),%edx        # 605524 <cookie>
  401361:	be 32 31 40 00       	mov    $0x403132,%esi
  401366:	bf 01 00 00 00       	mov    $0x1,%edi
  40136b:	b8 00 00 00 00       	mov    $0x0,%eax
  401370:	e8 8b fa ff ff       	callq  400e00 <__printf_chk@plt>
  401375:	48 8b 3d 24 41 20 00 	mov    0x204124(%rip),%rdi        # 6054a0 <buf_offset>
  40137c:	e8 ed 0c 00 00       	callq  40206e <stable_launch>
  401381:	b8 00 00 00 00       	mov    $0x0,%eax
  401386:	5b                   	pop    %rbx
  401387:	5d                   	pop    %rbp
  401388:	41 5c                	pop    %r12
  40138a:	41 5d                	pop    %r13
  40138c:	41 5e                	pop    %r14
  40138e:	c3                   	retq   

000000000040138f <scramble>:
  40138f:	48 83 ec 38          	sub    $0x38,%rsp
  401393:	64 48 8b 04 25 28 00 	mov    %fs:0x28,%rax
  40139a:	00 00 
  40139c:	48 89 44 24 28       	mov    %rax,0x28(%rsp)
  4013a1:	31 c0                	xor    %eax,%eax
  4013a3:	eb 10                	jmp    4013b5 <scramble+0x26>
  4013a5:	69 d0 ea b1 00 00    	imul   $0xb1ea,%eax,%edx
  4013ab:	01 fa                	add    %edi,%edx
  4013ad:	89 c1                	mov    %eax,%ecx
  4013af:	89 14 8c             	mov    %edx,(%rsp,%rcx,4)
  4013b2:	83 c0 01             	add    $0x1,%eax
  4013b5:	83 f8 09             	cmp    $0x9,%eax
  4013b8:	76 eb                	jbe    4013a5 <scramble+0x16>
  4013ba:	8b 44 24 0c          	mov    0xc(%rsp),%eax
  4013be:	69 c0 54 f8 00 00    	imul   $0xf854,%eax,%eax
  4013c4:	89 44 24 0c          	mov    %eax,0xc(%rsp)
  4013c8:	8b 04 24             	mov    (%rsp),%eax
  4013cb:	69 c0 31 72 00 00    	imul   $0x7231,%eax,%eax
  4013d1:	89 04 24             	mov    %eax,(%rsp)
  4013d4:	8b 44 24 1c          	mov    0x1c(%rsp),%eax
  4013d8:	69 c0 68 7e 00 00    	imul   $0x7e68,%eax,%eax
  4013de:	89 44 24 1c          	mov    %eax,0x1c(%rsp)
  4013e2:	8b 44 24 18          	mov    0x18(%rsp),%eax
  4013e6:	69 c0 b7 ff 00 00    	imul   $0xffb7,%eax,%eax
  4013ec:	89 44 24 18          	mov    %eax,0x18(%rsp)
  4013f0:	8b 44 24 1c          	mov    0x1c(%rsp),%eax
  4013f4:	69 c0 58 bf 00 00    	imul   $0xbf58,%eax,%eax
  4013fa:	89 44 24 1c          	mov    %eax,0x1c(%rsp)
  4013fe:	8b 44 24 08          	mov    0x8(%rsp),%eax
  401402:	69 c0 42 35 00 00    	imul   $0x3542,%eax,%eax
  401408:	89 44 24 08          	mov    %eax,0x8(%rsp)
  40140c:	8b 44 24 18          	mov    0x18(%rsp),%eax
  401410:	69 c0 e7 19 00 00    	imul   $0x19e7,%eax,%eax
  401416:	89 44 24 18          	mov    %eax,0x18(%rsp)
  40141a:	8b 44 24 0c          	mov    0xc(%rsp),%eax
  40141e:	69 c0 58 56 00 00    	imul   $0x5658,%eax,%eax
  401424:	89 44 24 0c          	mov    %eax,0xc(%rsp)
  401428:	8b 44 24 20          	mov    0x20(%rsp),%eax
  40142c:	69 c0 ea 77 00 00    	imul   $0x77ea,%eax,%eax
  401432:	89 44 24 20          	mov    %eax,0x20(%rsp)
  401436:	8b 04 24             	mov    (%rsp),%eax
  401439:	69 c0 5d 79 00 00    	imul   $0x795d,%eax,%eax
  40143f:	89 04 24             	mov    %eax,(%rsp)
  401442:	8b 44 24 24          	mov    0x24(%rsp),%eax
  401446:	69 c0 91 4f 00 00    	imul   $0x4f91,%eax,%eax
  40144c:	89 44 24 24          	mov    %eax,0x24(%rsp)
  401450:	8b 44 24 0c          	mov    0xc(%rsp),%eax
  401454:	69 c0 4a 33 00 00    	imul   $0x334a,%eax,%eax
  40145a:	89 44 24 0c          	mov    %eax,0xc(%rsp)
  40145e:	8b 44 24 04          	mov    0x4(%rsp),%eax
  401462:	69 c0 c7 ed 00 00    	imul   $0xedc7,%eax,%eax
  401468:	89 44 24 04          	mov    %eax,0x4(%rsp)
  40146c:	8b 44 24 18          	mov    0x18(%rsp),%eax
  401470:	69 c0 bc 48 00 00    	imul   $0x48bc,%eax,%eax
  401476:	89 44 24 18          	mov    %eax,0x18(%rsp)
  40147a:	8b 44 24 14          	mov    0x14(%rsp),%eax
  40147e:	69 c0 98 84 00 00    	imul   $0x8498,%eax,%eax
  401484:	89 44 24 14          	mov    %eax,0x14(%rsp)
  401488:	8b 44 24 18          	mov    0x18(%rsp),%eax
  40148c:	69 c0 42 7f 00 00    	imul   $0x7f42,%eax,%eax
  401492:	89 44 24 18          	mov    %eax,0x18(%rsp)
  401496:	8b 04 24             	mov    (%rsp),%eax
  401499:	69 c0 a1 ee 00 00    	imul   $0xeea1,%eax,%eax
  40149f:	89 04 24             	mov    %eax,(%rsp)
  4014a2:	8b 44 24 14          	mov    0x14(%rsp),%eax
  4014a6:	69 c0 c3 47 00 00    	imul   $0x47c3,%eax,%eax
  4014ac:	89 44 24 14          	mov    %eax,0x14(%rsp)
  4014b0:	8b 44 24 20          	mov    0x20(%rsp),%eax
  4014b4:	69 c0 4d 23 00 00    	imul   $0x234d,%eax,%eax
  4014ba:	89 44 24 20          	mov    %eax,0x20(%rsp)
  4014be:	8b 44 24 20          	mov    0x20(%rsp),%eax
  4014c2:	69 c0 3f ef 00 00    	imul   $0xef3f,%eax,%eax
  4014c8:	89 44 24 20          	mov    %eax,0x20(%rsp)
  4014cc:	8b 44 24 14          	mov    0x14(%rsp),%eax
  4014d0:	69 c0 71 74 00 00    	imul   $0x7471,%eax,%eax
  4014d6:	89 44 24 14          	mov    %eax,0x14(%rsp)
  4014da:	8b 44 24 24          	mov    0x24(%rsp),%eax
  4014de:	69 c0 1e 44 00 00    	imul   $0x441e,%eax,%eax
  4014e4:	89 44 24 24          	mov    %eax,0x24(%rsp)
  4014e8:	8b 44 24 08          	mov    0x8(%rsp),%eax
  4014ec:	69 c0 eb 03 00 00    	imul   $0x3eb,%eax,%eax
  4014f2:	89 44 24 08          	mov    %eax,0x8(%rsp)
  4014f6:	8b 44 24 20          	mov    0x20(%rsp),%eax
  4014fa:	69 c0 34 18 00 00    	imul   $0x1834,%eax,%eax
  401500:	89 44 24 20          	mov    %eax,0x20(%rsp)
  401504:	8b 44 24 14          	mov    0x14(%rsp),%eax
  401508:	69 c0 70 e8 00 00    	imul   $0xe870,%eax,%eax
  40150e:	89 44 24 14          	mov    %eax,0x14(%rsp)
  401512:	8b 44 24 1c          	mov    0x1c(%rsp),%eax
  401516:	69 c0 8c ad 00 00    	imul   $0xad8c,%eax,%eax
  40151c:	89 44 24 1c          	mov    %eax,0x1c(%rsp)
  401520:	8b 44 24 20          	mov    0x20(%rsp),%eax
  401524:	69 c0 5a 93 00 00    	imul   $0x935a,%eax,%eax
  40152a:	89 44 24 20          	mov    %eax,0x20(%rsp)
  40152e:	8b 44 24 24          	mov    0x24(%rsp),%eax
  401532:	69 c0 33 5e 00 00    	imul   $0x5e33,%eax,%eax
  401538:	89 44 24 24          	mov    %eax,0x24(%rsp)
  40153c:	8b 44 24 24          	mov    0x24(%rsp),%eax
  401540:	69 c0 89 4f 00 00    	imul   $0x4f89,%eax,%eax
  401546:	89 44 24 24          	mov    %eax,0x24(%rsp)
  40154a:	8b 44 24 10          	mov    0x10(%rsp),%eax
  40154e:	69 c0 79 4e 00 00    	imul   $0x4e79,%eax,%eax
  401554:	89 44 24 10          	mov    %eax,0x10(%rsp)
  401558:	8b 44 24 10          	mov    0x10(%rsp),%eax
  40155c:	69 c0 3f f5 00 00    	imul   $0xf53f,%eax,%eax
  401562:	89 44 24 10          	mov    %eax,0x10(%rsp)
  401566:	8b 44 24 18          	mov    0x18(%rsp),%eax
  40156a:	69 c0 0e 51 00 00    	imul   $0x510e,%eax,%eax
  401570:	89 44 24 18          	mov    %eax,0x18(%rsp)
  401574:	8b 44 24 1c          	mov    0x1c(%rsp),%eax
  401578:	69 c0 30 bf 00 00    	imul   $0xbf30,%eax,%eax
  40157e:	89 44 24 1c          	mov    %eax,0x1c(%rsp)
  401582:	8b 44 24 14          	mov    0x14(%rsp),%eax
  401586:	69 c0 e9 50 00 00    	imul   $0x50e9,%eax,%eax
  40158c:	89 44 24 14          	mov    %eax,0x14(%rsp)
  401590:	8b 44 24 20          	mov    0x20(%rsp),%eax
  401594:	69 c0 4b e0 00 00    	imul   $0xe04b,%eax,%eax
  40159a:	89 44 24 20          	mov    %eax,0x20(%rsp)
  40159e:	8b 44 24 14          	mov    0x14(%rsp),%eax
  4015a2:	69 c0 23 c5 00 00    	imul   $0xc523,%eax,%eax
  4015a8:	89 44 24 14          	mov    %eax,0x14(%rsp)
  4015ac:	8b 44 24 1c          	mov    0x1c(%rsp),%eax
  4015b0:	69 c0 aa 64 00 00    	imul   $0x64aa,%eax,%eax
  4015b6:	89 44 24 1c          	mov    %eax,0x1c(%rsp)
  4015ba:	8b 44 24 24          	mov    0x24(%rsp),%eax
  4015be:	69 c0 16 e3 00 00    	imul   $0xe316,%eax,%eax
  4015c4:	89 44 24 24          	mov    %eax,0x24(%rsp)
  4015c8:	8b 44 24 20          	mov    0x20(%rsp),%eax
  4015cc:	69 c0 b7 a3 00 00    	imul   $0xa3b7,%eax,%eax
  4015d2:	89 44 24 20          	mov    %eax,0x20(%rsp)
  4015d6:	8b 44 24 10          	mov    0x10(%rsp),%eax
  4015da:	69 c0 6b e4 00 00    	imul   $0xe46b,%eax,%eax
  4015e0:	89 44 24 10          	mov    %eax,0x10(%rsp)
  4015e4:	8b 44 24 08          	mov    0x8(%rsp),%eax
  4015e8:	69 c0 db 8c 00 00    	imul   $0x8cdb,%eax,%eax
  4015ee:	89 44 24 08          	mov    %eax,0x8(%rsp)
  4015f2:	8b 44 24 04          	mov    0x4(%rsp),%eax
  4015f6:	69 c0 29 c4 00 00    	imul   $0xc429,%eax,%eax
  4015fc:	89 44 24 04          	mov    %eax,0x4(%rsp)
  401600:	8b 44 24 10          	mov    0x10(%rsp),%eax
  401604:	69 c0 ce 72 00 00    	imul   $0x72ce,%eax,%eax
  40160a:	89 44 24 10          	mov    %eax,0x10(%rsp)
  40160e:	8b 44 24 10          	mov    0x10(%rsp),%eax
  401612:	69 c0 56 a1 00 00    	imul   $0xa156,%eax,%eax
  401618:	89 44 24 10          	mov    %eax,0x10(%rsp)
  40161c:	8b 44 24 24          	mov    0x24(%rsp),%eax
  401620:	69 c0 4c c9 00 00    	imul   $0xc94c,%eax,%eax
  401626:	89 44 24 24          	mov    %eax,0x24(%rsp)
  40162a:	8b 44 24 0c          	mov    0xc(%rsp),%eax
  40162e:	69 c0 7a 96 00 00    	imul   $0x967a,%eax,%eax
  401634:	89 44 24 0c          	mov    %eax,0xc(%rsp)
  401638:	8b 44 24 20          	mov    0x20(%rsp),%eax
  40163c:	69 c0 8b bd 00 00    	imul   $0xbd8b,%eax,%eax
  401642:	89 44 24 20          	mov    %eax,0x20(%rsp)
  401646:	8b 44 24 04          	mov    0x4(%rsp),%eax
  40164a:	69 c0 6b a2 00 00    	imul   $0xa26b,%eax,%eax
  401650:	89 44 24 04          	mov    %eax,0x4(%rsp)
  401654:	8b 44 24 18          	mov    0x18(%rsp),%eax
  401658:	69 c0 5a 80 00 00    	imul   $0x805a,%eax,%eax
  40165e:	89 44 24 18          	mov    %eax,0x18(%rsp)
  401662:	8b 44 24 14          	mov    0x14(%rsp),%eax
  401666:	69 c0 39 5f 00 00    	imul   $0x5f39,%eax,%eax
  40166c:	89 44 24 14          	mov    %eax,0x14(%rsp)
  401670:	8b 44 24 08          	mov    0x8(%rsp),%eax
  401674:	69 c0 7c 33 00 00    	imul   $0x337c,%eax,%eax
  40167a:	89 44 24 08          	mov    %eax,0x8(%rsp)
  40167e:	8b 04 24             	mov    (%rsp),%eax
  401681:	69 c0 62 b5 00 00    	imul   $0xb562,%eax,%eax
  401687:	89 04 24             	mov    %eax,(%rsp)
  40168a:	8b 44 24 20          	mov    0x20(%rsp),%eax
  40168e:	69 c0 9e 2d 00 00    	imul   $0x2d9e,%eax,%eax
  401694:	89 44 24 20          	mov    %eax,0x20(%rsp)
  401698:	8b 44 24 04          	mov    0x4(%rsp),%eax
  40169c:	69 c0 bc 00 00 00    	imul   $0xbc,%eax,%eax
  4016a2:	89 44 24 04          	mov    %eax,0x4(%rsp)
  4016a6:	8b 44 24 0c          	mov    0xc(%rsp),%eax
  4016aa:	69 c0 c2 93 00 00    	imul   $0x93c2,%eax,%eax
  4016b0:	89 44 24 0c          	mov    %eax,0xc(%rsp)
  4016b4:	8b 44 24 04          	mov    0x4(%rsp),%eax
  4016b8:	69 c0 7d 5d 00 00    	imul   $0x5d7d,%eax,%eax
  4016be:	89 44 24 04          	mov    %eax,0x4(%rsp)
  4016c2:	8b 44 24 04          	mov    0x4(%rsp),%eax
  4016c6:	69 c0 1f 77 00 00    	imul   $0x771f,%eax,%eax
  4016cc:	89 44 24 04          	mov    %eax,0x4(%rsp)
  4016d0:	8b 44 24 20          	mov    0x20(%rsp),%eax
  4016d4:	69 c0 d2 40 00 00    	imul   $0x40d2,%eax,%eax
  4016da:	89 44 24 20          	mov    %eax,0x20(%rsp)
  4016de:	8b 44 24 20          	mov    0x20(%rsp),%eax
  4016e2:	69 c0 03 44 00 00    	imul   $0x4403,%eax,%eax
  4016e8:	89 44 24 20          	mov    %eax,0x20(%rsp)
  4016ec:	8b 44 24 0c          	mov    0xc(%rsp),%eax
  4016f0:	69 c0 46 ac 00 00    	imul   $0xac46,%eax,%eax
  4016f6:	89 44 24 0c          	mov    %eax,0xc(%rsp)
  4016fa:	8b 44 24 08          	mov    0x8(%rsp),%eax
  4016fe:	69 c0 f8 d1 00 00    	imul   $0xd1f8,%eax,%eax
  401704:	89 44 24 08          	mov    %eax,0x8(%rsp)
  401708:	8b 44 24 0c          	mov    0xc(%rsp),%eax
  40170c:	69 c0 da cb 00 00    	imul   $0xcbda,%eax,%eax
  401712:	89 44 24 0c          	mov    %eax,0xc(%rsp)
  401716:	8b 44 24 24          	mov    0x24(%rsp),%eax
  40171a:	69 c0 48 2a 00 00    	imul   $0x2a48,%eax,%eax
  401720:	89 44 24 24          	mov    %eax,0x24(%rsp)
  401724:	8b 04 24             	mov    (%rsp),%eax
  401727:	69 c0 3f 0c 00 00    	imul   $0xc3f,%eax,%eax
  40172d:	89 04 24             	mov    %eax,(%rsp)
  401730:	8b 44 24 10          	mov    0x10(%rsp),%eax
  401734:	69 c0 99 61 00 00    	imul   $0x6199,%eax,%eax
  40173a:	89 44 24 10          	mov    %eax,0x10(%rsp)
  40173e:	8b 44 24 08          	mov    0x8(%rsp),%eax
  401742:	69 c0 48 0b 00 00    	imul   $0xb48,%eax,%eax
  401748:	89 44 24 08          	mov    %eax,0x8(%rsp)
  40174c:	8b 04 24             	mov    (%rsp),%eax
  40174f:	69 c0 d4 8f 00 00    	imul   $0x8fd4,%eax,%eax
  401755:	89 04 24             	mov    %eax,(%rsp)
  401758:	8b 44 24 20          	mov    0x20(%rsp),%eax
  40175c:	69 c0 3c 2d 00 00    	imul   $0x2d3c,%eax,%eax
  401762:	89 44 24 20          	mov    %eax,0x20(%rsp)
  401766:	8b 44 24 18          	mov    0x18(%rsp),%eax
  40176a:	69 c0 23 59 00 00    	imul   $0x5923,%eax,%eax
  401770:	89 44 24 18          	mov    %eax,0x18(%rsp)
  401774:	8b 44 24 1c          	mov    0x1c(%rsp),%eax
  401778:	69 c0 c8 8e 00 00    	imul   $0x8ec8,%eax,%eax
  40177e:	89 44 24 1c          	mov    %eax,0x1c(%rsp)
  401782:	8b 44 24 24          	mov    0x24(%rsp),%eax
  401786:	69 c0 20 13 00 00    	imul   $0x1320,%eax,%eax
  40178c:	89 44 24 24          	mov    %eax,0x24(%rsp)
  401790:	8b 44 24 1c          	mov    0x1c(%rsp),%eax
  401794:	69 c0 83 0d 00 00    	imul   $0xd83,%eax,%eax
  40179a:	89 44 24 1c          	mov    %eax,0x1c(%rsp)
  40179e:	8b 44 24 14          	mov    0x14(%rsp),%eax
  4017a2:	69 c0 ec 0d 00 00    	imul   $0xdec,%eax,%eax
  4017a8:	89 44 24 14          	mov    %eax,0x14(%rsp)
  4017ac:	8b 44 24 18          	mov    0x18(%rsp),%eax
  4017b0:	69 c0 2d 74 00 00    	imul   $0x742d,%eax,%eax
  4017b6:	89 44 24 18          	mov    %eax,0x18(%rsp)
  4017ba:	8b 44 24 04          	mov    0x4(%rsp),%eax
  4017be:	69 c0 7e 30 00 00    	imul   $0x307e,%eax,%eax
  4017c4:	89 44 24 04          	mov    %eax,0x4(%rsp)
  4017c8:	8b 44 24 10          	mov    0x10(%rsp),%eax
  4017cc:	69 c0 3f 5f 00 00    	imul   $0x5f3f,%eax,%eax
  4017d2:	89 44 24 10          	mov    %eax,0x10(%rsp)
  4017d6:	8b 44 24 20          	mov    0x20(%rsp),%eax
  4017da:	69 c0 33 63 00 00    	imul   $0x6333,%eax,%eax
  4017e0:	89 44 24 20          	mov    %eax,0x20(%rsp)
  4017e4:	8b 44 24 18          	mov    0x18(%rsp),%eax
  4017e8:	69 c0 f9 91 00 00    	imul   $0x91f9,%eax,%eax
  4017ee:	89 44 24 18          	mov    %eax,0x18(%rsp)
  4017f2:	8b 44 24 18          	mov    0x18(%rsp),%eax
  4017f6:	69 c0 5f 99 00 00    	imul   $0x995f,%eax,%eax
  4017fc:	89 44 24 18          	mov    %eax,0x18(%rsp)
  401800:	8b 44 24 14          	mov    0x14(%rsp),%eax
  401804:	69 c0 1e 38 00 00    	imul   $0x381e,%eax,%eax
  40180a:	89 44 24 14          	mov    %eax,0x14(%rsp)
  40180e:	8b 44 24 10          	mov    0x10(%rsp),%eax
  401812:	69 c0 b0 09 00 00    	imul   $0x9b0,%eax,%eax
  401818:	89 44 24 10          	mov    %eax,0x10(%rsp)
  40181c:	8b 44 24 24          	mov    0x24(%rsp),%eax
  401820:	69 c0 0f 90 00 00    	imul   $0x900f,%eax,%eax
  401826:	89 44 24 24          	mov    %eax,0x24(%rsp)
  40182a:	8b 44 24 24          	mov    0x24(%rsp),%eax
  40182e:	69 c0 11 04 00 00    	imul   $0x411,%eax,%eax
  401834:	89 44 24 24          	mov    %eax,0x24(%rsp)
  401838:	8b 44 24 18          	mov    0x18(%rsp),%eax
  40183c:	69 c0 f7 56 00 00    	imul   $0x56f7,%eax,%eax
  401842:	89 44 24 18          	mov    %eax,0x18(%rsp)
  401846:	8b 44 24 24          	mov    0x24(%rsp),%eax
  40184a:	69 c0 44 eb 00 00    	imul   $0xeb44,%eax,%eax
  401850:	89 44 24 24          	mov    %eax,0x24(%rsp)
  401854:	8b 04 24             	mov    (%rsp),%eax
  401857:	69 c0 19 4a 00 00    	imul   $0x4a19,%eax,%eax
  40185d:	89 04 24             	mov    %eax,(%rsp)
  401860:	8b 44 24 10          	mov    0x10(%rsp),%eax
  401864:	69 c0 05 d2 00 00    	imul   $0xd205,%eax,%eax
  40186a:	89 44 24 10          	mov    %eax,0x10(%rsp)
  40186e:	8b 44 24 24          	mov    0x24(%rsp),%eax
  401872:	69 c0 a3 88 00 00    	imul   $0x88a3,%eax,%eax
  401878:	89 44 24 24          	mov    %eax,0x24(%rsp)
  40187c:	ba 00 00 00 00       	mov    $0x0,%edx
  401881:	b8 00 00 00 00       	mov    $0x0,%eax
  401886:	eb 0a                	jmp    401892 <scramble+0x503>
  401888:	89 d1                	mov    %edx,%ecx
  40188a:	8b 0c 8c             	mov    (%rsp,%rcx,4),%ecx
  40188d:	01 c8                	add    %ecx,%eax
  40188f:	83 c2 01             	add    $0x1,%edx
  401892:	83 fa 09             	cmp    $0x9,%edx
  401895:	76 f1                	jbe    401888 <scramble+0x4f9>
  401897:	48 8b 74 24 28       	mov    0x28(%rsp),%rsi
  40189c:	64 48 33 34 25 28 00 	xor    %fs:0x28,%rsi
  4018a3:	00 00 
  4018a5:	74 05                	je     4018ac <scramble+0x51d>
  4018a7:	e8 44 f4 ff ff       	callq  400cf0 <__stack_chk_fail@plt>
  4018ac:	48 83 c4 38          	add    $0x38,%rsp
  4018b0:	c3                   	retq   

00000000004018b1 <getbuf>:
  4018b1:	48 83 ec 38          	sub    $0x38,%rsp
  4018b5:	48 89 e7             	mov    %rsp,%rdi
  4018b8:	e8 7e 02 00 00       	callq  401b3b <Gets>
  4018bd:	b8 01 00 00 00       	mov    $0x1,%eax
  4018c2:	48 83 c4 38          	add    $0x38,%rsp
  4018c6:	c3                   	retq   

00000000004018c7 <touch1>:
  4018c7:	48 83 ec 08          	sub    $0x8,%rsp
  4018cb:	c7 05 47 3c 20 00 01 	movl   $0x1,0x203c47(%rip)        # 60551c <vlevel>
  4018d2:	00 00 00 
  4018d5:	bf 20 33 40 00       	mov    $0x403320,%edi
  4018da:	e8 f1 f3 ff ff       	callq  400cd0 <puts@plt>
  4018df:	bf 01 00 00 00       	mov    $0x1,%edi
  4018e4:	e8 97 04 00 00       	callq  401d80 <validate>
  4018e9:	bf 00 00 00 00       	mov    $0x0,%edi
  4018ee:	e8 5d f5 ff ff       	callq  400e50 <exit@plt>

00000000004018f3 <touch2>:
  4018f3:	48 83 ec 08          	sub    $0x8,%rsp
  4018f7:	89 fa                	mov    %edi,%edx
  4018f9:	c7 05 19 3c 20 00 02 	movl   $0x2,0x203c19(%rip)        # 60551c <vlevel>
  401900:	00 00 00 
  401903:	39 3d 1b 3c 20 00    	cmp    %edi,0x203c1b(%rip)        # 605524 <cookie>
  401909:	75 20                	jne    40192b <touch2+0x38>
  40190b:	be 48 33 40 00       	mov    $0x403348,%esi
  401910:	bf 01 00 00 00       	mov    $0x1,%edi
  401915:	b8 00 00 00 00       	mov    $0x0,%eax
  40191a:	e8 e1 f4 ff ff       	callq  400e00 <__printf_chk@plt>
  40191f:	bf 02 00 00 00       	mov    $0x2,%edi
  401924:	e8 57 04 00 00       	callq  401d80 <validate>
  401929:	eb 1e                	jmp    401949 <touch2+0x56>
  40192b:	be 70 33 40 00       	mov    $0x403370,%esi
  401930:	bf 01 00 00 00       	mov    $0x1,%edi
  401935:	b8 00 00 00 00       	mov    $0x0,%eax
  40193a:	e8 c1 f4 ff ff       	callq  400e00 <__printf_chk@plt>
  40193f:	bf 02 00 00 00       	mov    $0x2,%edi
  401944:	e8 13 05 00 00       	callq  401e5c <fail>
  401949:	bf 00 00 00 00       	mov    $0x0,%edi
  40194e:	e8 fd f4 ff ff       	callq  400e50 <exit@plt>

0000000000401953 <hexmatch>:
  401953:	41 54                	push   %r12
  401955:	55                   	push   %rbp
  401956:	53                   	push   %rbx
  401957:	48 83 c4 80          	add    $0xffffffffffffff80,%rsp
  40195b:	89 fd                	mov    %edi,%ebp
  40195d:	48 89 f3             	mov    %rsi,%rbx
  401960:	64 48 8b 04 25 28 00 	mov    %fs:0x28,%rax
  401967:	00 00 
  401969:	48 89 44 24 78       	mov    %rax,0x78(%rsp)
  40196e:	31 c0                	xor    %eax,%eax
  401970:	e8 4b f4 ff ff       	callq  400dc0 <random@plt>
  401975:	48 89 c1             	mov    %rax,%rcx
  401978:	48 ba 0b d7 a3 70 3d 	movabs $0xa3d70a3d70a3d70b,%rdx
  40197f:	0a d7 a3 
  401982:	48 f7 ea             	imul   %rdx
  401985:	48 01 ca             	add    %rcx,%rdx
  401988:	48 c1 fa 06          	sar    $0x6,%rdx
  40198c:	48 89 c8             	mov    %rcx,%rax
  40198f:	48 c1 f8 3f          	sar    $0x3f,%rax
  401993:	48 29 c2             	sub    %rax,%rdx
  401996:	48 8d 04 92          	lea    (%rdx,%rdx,4),%rax
  40199a:	48 8d 14 80          	lea    (%rax,%rax,4),%rdx
  40199e:	48 8d 04 95 00 00 00 	lea    0x0(,%rdx,4),%rax
  4019a5:	00 
  4019a6:	48 29 c1             	sub    %rax,%rcx
  4019a9:	4c 8d 24 0c          	lea    (%rsp,%rcx,1),%r12
  4019ad:	41 89 e8             	mov    %ebp,%r8d
  4019b0:	b9 3d 33 40 00       	mov    $0x40333d,%ecx
  4019b5:	48 c7 c2 ff ff ff ff 	mov    $0xffffffffffffffff,%rdx
  4019bc:	be 01 00 00 00       	mov    $0x1,%esi
  4019c1:	4c 89 e7             	mov    %r12,%rdi
  4019c4:	b8 00 00 00 00       	mov    $0x0,%eax
  4019c9:	e8 b2 f4 ff ff       	callq  400e80 <__sprintf_chk@plt>
  4019ce:	ba 09 00 00 00       	mov    $0x9,%edx
  4019d3:	4c 89 e6             	mov    %r12,%rsi
  4019d6:	48 89 df             	mov    %rbx,%rdi
  4019d9:	e8 d2 f2 ff ff       	callq  400cb0 <strncmp@plt>
  4019de:	85 c0                	test   %eax,%eax
  4019e0:	0f 94 c0             	sete   %al
  4019e3:	48 8b 5c 24 78       	mov    0x78(%rsp),%rbx
  4019e8:	64 48 33 1c 25 28 00 	xor    %fs:0x28,%rbx
  4019ef:	00 00 
  4019f1:	74 05                	je     4019f8 <hexmatch+0xa5>
  4019f3:	e8 f8 f2 ff ff       	callq  400cf0 <__stack_chk_fail@plt>
  4019f8:	0f b6 c0             	movzbl %al,%eax
  4019fb:	48 83 ec 80          	sub    $0xffffffffffffff80,%rsp
  4019ff:	5b                   	pop    %rbx
  401a00:	5d                   	pop    %rbp
  401a01:	41 5c                	pop    %r12
  401a03:	c3                   	retq   

0000000000401a04 <touch3>:
  401a04:	53                   	push   %rbx
  401a05:	48 89 fb             	mov    %rdi,%rbx
  401a08:	c7 05 0a 3b 20 00 03 	movl   $0x3,0x203b0a(%rip)        # 60551c <vlevel>
  401a0f:	00 00 00 
  401a12:	48 89 fe             	mov    %rdi,%rsi
  401a15:	8b 3d 09 3b 20 00    	mov    0x203b09(%rip),%edi        # 605524 <cookie>
  401a1b:	e8 33 ff ff ff       	callq  401953 <hexmatch>
  401a20:	85 c0                	test   %eax,%eax
  401a22:	74 23                	je     401a47 <touch3+0x43>
  401a24:	48 89 da             	mov    %rbx,%rdx
  401a27:	be 98 33 40 00       	mov    $0x403398,%esi
  401a2c:	bf 01 00 00 00       	mov    $0x1,%edi
  401a31:	b8 00 00 00 00       	mov    $0x0,%eax
  401a36:	e8 c5 f3 ff ff       	callq  400e00 <__printf_chk@plt>
  401a3b:	bf 03 00 00 00       	mov    $0x3,%edi
  401a40:	e8 3b 03 00 00       	callq  401d80 <validate>
  401a45:	eb 21                	jmp    401a68 <touch3+0x64>
  401a47:	48 89 da             	mov    %rbx,%rdx
  401a4a:	be c0 33 40 00       	mov    $0x4033c0,%esi
  401a4f:	bf 01 00 00 00       	mov    $0x1,%edi
  401a54:	b8 00 00 00 00       	mov    $0x0,%eax
  401a59:	e8 a2 f3 ff ff       	callq  400e00 <__printf_chk@plt>
  401a5e:	bf 03 00 00 00       	mov    $0x3,%edi
  401a63:	e8 f4 03 00 00       	callq  401e5c <fail>
  401a68:	bf 00 00 00 00       	mov    $0x0,%edi
  401a6d:	e8 de f3 ff ff       	callq  400e50 <exit@plt>

0000000000401a72 <test>:
  401a72:	48 83 ec 08          	sub    $0x8,%rsp
  401a76:	b8 00 00 00 00       	mov    $0x0,%eax
  401a7b:	e8 31 fe ff ff       	callq  4018b1 <getbuf>
  401a80:	89 c2                	mov    %eax,%edx
  401a82:	be e8 33 40 00       	mov    $0x4033e8,%esi
  401a87:	bf 01 00 00 00       	mov    $0x1,%edi
  401a8c:	b8 00 00 00 00       	mov    $0x0,%eax
  401a91:	e8 6a f3 ff ff       	callq  400e00 <__printf_chk@plt>
  401a96:	48 83 c4 08          	add    $0x8,%rsp
  401a9a:	c3                   	retq   

0000000000401a9b <save_char>:
  401a9b:	8b 05 a3 46 20 00    	mov    0x2046a3(%rip),%eax        # 606144 <gets_cnt>
  401aa1:	3d ff 03 00 00       	cmp    $0x3ff,%eax
  401aa6:	7f 49                	jg     401af1 <save_char+0x56>
  401aa8:	8d 14 40             	lea    (%rax,%rax,2),%edx
  401aab:	89 f9                	mov    %edi,%ecx
  401aad:	c0 e9 04             	shr    $0x4,%cl
  401ab0:	83 e1 0f             	and    $0xf,%ecx
  401ab3:	0f b6 b1 10 37 40 00 	movzbl 0x403710(%rcx),%esi
  401aba:	48 63 ca             	movslq %edx,%rcx
  401abd:	40 88 b1 40 55 60 00 	mov    %sil,0x605540(%rcx)
  401ac4:	8d 4a 01             	lea    0x1(%rdx),%ecx
  401ac7:	83 e7 0f             	and    $0xf,%edi
  401aca:	0f b6 b7 10 37 40 00 	movzbl 0x403710(%rdi),%esi
  401ad1:	48 63 c9             	movslq %ecx,%rcx
  401ad4:	40 88 b1 40 55 60 00 	mov    %sil,0x605540(%rcx)
  401adb:	83 c2 02             	add    $0x2,%edx
  401ade:	48 63 d2             	movslq %edx,%rdx
  401ae1:	c6 82 40 55 60 00 20 	movb   $0x20,0x605540(%rdx)
  401ae8:	83 c0 01             	add    $0x1,%eax
  401aeb:	89 05 53 46 20 00    	mov    %eax,0x204653(%rip)        # 606144 <gets_cnt>
  401af1:	f3 c3                	repz retq 

0000000000401af3 <save_term>:
  401af3:	8b 05 4b 46 20 00    	mov    0x20464b(%rip),%eax        # 606144 <gets_cnt>
  401af9:	8d 04 40             	lea    (%rax,%rax,2),%eax
  401afc:	48 98                	cltq   
  401afe:	c6 80 40 55 60 00 00 	movb   $0x0,0x605540(%rax)
  401b05:	c3                   	retq   

0000000000401b06 <check_fail>:
  401b06:	48 83 ec 08          	sub    $0x8,%rsp
  401b0a:	0f be 15 37 46 20 00 	movsbl 0x204637(%rip),%edx        # 606148 <target_prefix>
  401b11:	41 b8 40 55 60 00    	mov    $0x605540,%r8d
  401b17:	8b 0d fb 39 20 00    	mov    0x2039fb(%rip),%ecx        # 605518 <check_level>
  401b1d:	be 0b 34 40 00       	mov    $0x40340b,%esi
  401b22:	bf 01 00 00 00       	mov    $0x1,%edi
  401b27:	b8 00 00 00 00       	mov    $0x0,%eax
  401b2c:	e8 cf f2 ff ff       	callq  400e00 <__printf_chk@plt>
  401b31:	bf 01 00 00 00       	mov    $0x1,%edi
  401b36:	e8 15 f3 ff ff       	callq  400e50 <exit@plt>

0000000000401b3b <Gets>:
  401b3b:	41 54                	push   %r12
  401b3d:	55                   	push   %rbp
  401b3e:	53                   	push   %rbx
  401b3f:	49 89 fc             	mov    %rdi,%r12
  401b42:	c7 05 f8 45 20 00 00 	movl   $0x0,0x2045f8(%rip)        # 606144 <gets_cnt>
  401b49:	00 00 00 
  401b4c:	48 89 fb             	mov    %rdi,%rbx
  401b4f:	eb 11                	jmp    401b62 <Gets+0x27>
  401b51:	48 8d 6b 01          	lea    0x1(%rbx),%rbp
  401b55:	88 03                	mov    %al,(%rbx)
  401b57:	0f b6 f8             	movzbl %al,%edi
  401b5a:	e8 3c ff ff ff       	callq  401a9b <save_char>
  401b5f:	48 89 eb             	mov    %rbp,%rbx
  401b62:	48 8b 3d a7 39 20 00 	mov    0x2039a7(%rip),%rdi        # 605510 <infile>
  401b69:	e8 62 f2 ff ff       	callq  400dd0 <_IO_getc@plt>
  401b6e:	83 f8 ff             	cmp    $0xffffffff,%eax
  401b71:	74 05                	je     401b78 <Gets+0x3d>
  401b73:	83 f8 0a             	cmp    $0xa,%eax
  401b76:	75 d9                	jne    401b51 <Gets+0x16>
  401b78:	c6 03 00             	movb   $0x0,(%rbx)
  401b7b:	b8 00 00 00 00       	mov    $0x0,%eax
  401b80:	e8 6e ff ff ff       	callq  401af3 <save_term>
  401b85:	4c 89 e0             	mov    %r12,%rax
  401b88:	5b                   	pop    %rbx
  401b89:	5d                   	pop    %rbp
  401b8a:	41 5c                	pop    %r12
  401b8c:	c3                   	retq   

0000000000401b8d <notify_server>:
  401b8d:	53                   	push   %rbx
  401b8e:	48 81 ec 10 40 00 00 	sub    $0x4010,%rsp
  401b95:	64 48 8b 04 25 28 00 	mov    %fs:0x28,%rax
  401b9c:	00 00 
  401b9e:	48 89 84 24 08 40 00 	mov    %rax,0x4008(%rsp)
  401ba5:	00 
  401ba6:	31 c0                	xor    %eax,%eax
  401ba8:	83 3d 79 39 20 00 00 	cmpl   $0x0,0x203979(%rip)        # 605528 <is_checker>
  401baf:	0f 85 aa 01 00 00    	jne    401d5f <notify_server+0x1d2>
  401bb5:	89 fb                	mov    %edi,%ebx
  401bb7:	8b 05 87 45 20 00    	mov    0x204587(%rip),%eax        # 606144 <gets_cnt>
  401bbd:	83 c0 64             	add    $0x64,%eax
  401bc0:	3d 00 20 00 00       	cmp    $0x2000,%eax
  401bc5:	7e 1e                	jle    401be5 <notify_server+0x58>
  401bc7:	be 40 35 40 00       	mov    $0x403540,%esi
  401bcc:	bf 01 00 00 00       	mov    $0x1,%edi
  401bd1:	b8 00 00 00 00       	mov    $0x0,%eax
  401bd6:	e8 25 f2 ff ff       	callq  400e00 <__printf_chk@plt>
  401bdb:	bf 01 00 00 00       	mov    $0x1,%edi
  401be0:	e8 6b f2 ff ff       	callq  400e50 <exit@plt>
  401be5:	0f be 05 5c 45 20 00 	movsbl 0x20455c(%rip),%eax        # 606148 <target_prefix>
  401bec:	83 3d b5 38 20 00 00 	cmpl   $0x0,0x2038b5(%rip)        # 6054a8 <notify>
  401bf3:	74 08                	je     401bfd <notify_server+0x70>
  401bf5:	8b 15 25 39 20 00    	mov    0x203925(%rip),%edx        # 605520 <authkey>
  401bfb:	eb 05                	jmp    401c02 <notify_server+0x75>
  401bfd:	ba ff ff ff ff       	mov    $0xffffffff,%edx
  401c02:	85 db                	test   %ebx,%ebx
  401c04:	74 08                	je     401c0e <notify_server+0x81>
  401c06:	41 b9 21 34 40 00    	mov    $0x403421,%r9d
  401c0c:	eb 06                	jmp    401c14 <notify_server+0x87>
  401c0e:	41 b9 26 34 40 00    	mov    $0x403426,%r9d
  401c14:	68 40 55 60 00       	pushq  $0x605540
  401c19:	56                   	push   %rsi
  401c1a:	50                   	push   %rax
  401c1b:	52                   	push   %rdx
  401c1c:	44 8b 05 45 35 20 00 	mov    0x203545(%rip),%r8d        # 605168 <target_id>
  401c23:	b9 2b 34 40 00       	mov    $0x40342b,%ecx
  401c28:	ba 00 20 00 00       	mov    $0x2000,%edx
  401c2d:	be 01 00 00 00       	mov    $0x1,%esi
  401c32:	48 8d 7c 24 20       	lea    0x20(%rsp),%rdi
  401c37:	b8 00 00 00 00       	mov    $0x0,%eax
  401c3c:	e8 3f f2 ff ff       	callq  400e80 <__sprintf_chk@plt>
  401c41:	48 83 c4 20          	add    $0x20,%rsp
  401c45:	83 3d 5c 38 20 00 00 	cmpl   $0x0,0x20385c(%rip)        # 6054a8 <notify>
  401c4c:	0f 84 81 00 00 00    	je     401cd3 <notify_server+0x146>
  401c52:	85 db                	test   %ebx,%ebx
  401c54:	74 6e                	je     401cc4 <notify_server+0x137>
  401c56:	4c 8d 8c 24 00 20 00 	lea    0x2000(%rsp),%r9
  401c5d:	00 
  401c5e:	41 b8 00 00 00 00    	mov    $0x0,%r8d
  401c64:	48 89 e1             	mov    %rsp,%rcx
  401c67:	48 8b 15 02 35 20 00 	mov    0x203502(%rip),%rdx        # 605170 <lab>
  401c6e:	48 8b 35 03 35 20 00 	mov    0x203503(%rip),%rsi        # 605178 <course>
  401c75:	48 8b 3d e4 34 20 00 	mov    0x2034e4(%rip),%rdi        # 605160 <user_id>
  401c7c:	e8 09 11 00 00       	callq  402d8a <driver_post>
  401c81:	85 c0                	test   %eax,%eax
  401c83:	79 26                	jns    401cab <notify_server+0x11e>
  401c85:	48 8d 94 24 00 20 00 	lea    0x2000(%rsp),%rdx
  401c8c:	00 
  401c8d:	be 47 34 40 00       	mov    $0x403447,%esi
  401c92:	bf 01 00 00 00       	mov    $0x1,%edi
  401c97:	b8 00 00 00 00       	mov    $0x0,%eax
  401c9c:	e8 5f f1 ff ff       	callq  400e00 <__printf_chk@plt>
  401ca1:	bf 01 00 00 00       	mov    $0x1,%edi
  401ca6:	e8 a5 f1 ff ff       	callq  400e50 <exit@plt>
  401cab:	bf 70 35 40 00       	mov    $0x403570,%edi
  401cb0:	e8 1b f0 ff ff       	callq  400cd0 <puts@plt>
  401cb5:	bf 53 34 40 00       	mov    $0x403453,%edi
  401cba:	e8 11 f0 ff ff       	callq  400cd0 <puts@plt>
  401cbf:	e9 9b 00 00 00       	jmpq   401d5f <notify_server+0x1d2>
  401cc4:	bf 5d 34 40 00       	mov    $0x40345d,%edi
  401cc9:	e8 02 f0 ff ff       	callq  400cd0 <puts@plt>
  401cce:	e9 8c 00 00 00       	jmpq   401d5f <notify_server+0x1d2>
  401cd3:	85 db                	test   %ebx,%ebx
  401cd5:	74 07                	je     401cde <notify_server+0x151>
  401cd7:	ba 21 34 40 00       	mov    $0x403421,%edx
  401cdc:	eb 05                	jmp    401ce3 <notify_server+0x156>
  401cde:	ba 26 34 40 00       	mov    $0x403426,%edx
  401ce3:	be a8 35 40 00       	mov    $0x4035a8,%esi
  401ce8:	bf 01 00 00 00       	mov    $0x1,%edi
  401ced:	b8 00 00 00 00       	mov    $0x0,%eax
  401cf2:	e8 09 f1 ff ff       	callq  400e00 <__printf_chk@plt>
  401cf7:	48 8b 15 62 34 20 00 	mov    0x203462(%rip),%rdx        # 605160 <user_id>
  401cfe:	be 64 34 40 00       	mov    $0x403464,%esi
  401d03:	bf 01 00 00 00       	mov    $0x1,%edi
  401d08:	b8 00 00 00 00       	mov    $0x0,%eax
  401d0d:	e8 ee f0 ff ff       	callq  400e00 <__printf_chk@plt>
  401d12:	48 8b 15 5f 34 20 00 	mov    0x20345f(%rip),%rdx        # 605178 <course>
  401d19:	be 71 34 40 00       	mov    $0x403471,%esi
  401d1e:	bf 01 00 00 00       	mov    $0x1,%edi
  401d23:	b8 00 00 00 00       	mov    $0x0,%eax
  401d28:	e8 d3 f0 ff ff       	callq  400e00 <__printf_chk@plt>
  401d2d:	48 8b 15 3c 34 20 00 	mov    0x20343c(%rip),%rdx        # 605170 <lab>
  401d34:	be 7d 34 40 00       	mov    $0x40347d,%esi
  401d39:	bf 01 00 00 00       	mov    $0x1,%edi
  401d3e:	b8 00 00 00 00       	mov    $0x0,%eax
  401d43:	e8 b8 f0 ff ff       	callq  400e00 <__printf_chk@plt>
  401d48:	48 89 e2             	mov    %rsp,%rdx
  401d4b:	be 86 34 40 00       	mov    $0x403486,%esi
  401d50:	bf 01 00 00 00       	mov    $0x1,%edi
  401d55:	b8 00 00 00 00       	mov    $0x0,%eax
  401d5a:	e8 a1 f0 ff ff       	callq  400e00 <__printf_chk@plt>
  401d5f:	48 8b 84 24 08 40 00 	mov    0x4008(%rsp),%rax
  401d66:	00 
  401d67:	64 48 33 04 25 28 00 	xor    %fs:0x28,%rax
  401d6e:	00 00 
  401d70:	74 05                	je     401d77 <notify_server+0x1ea>
  401d72:	e8 79 ef ff ff       	callq  400cf0 <__stack_chk_fail@plt>
  401d77:	48 81 c4 10 40 00 00 	add    $0x4010,%rsp
  401d7e:	5b                   	pop    %rbx
  401d7f:	c3                   	retq   

0000000000401d80 <validate>:
  401d80:	4c 8d 54 24 08       	lea    0x8(%rsp),%r10
  401d85:	48 83 e4 f0          	and    $0xfffffffffffffff0,%rsp
  401d89:	41 ff 72 f8          	pushq  -0x8(%r10)
  401d8d:	55                   	push   %rbp
  401d8e:	48 89 e5             	mov    %rsp,%rbp
  401d91:	41 52                	push   %r10
  401d93:	53                   	push   %rbx
  401d94:	89 fb                	mov    %edi,%ebx
  401d96:	83 3d 8b 37 20 00 00 	cmpl   $0x0,0x20378b(%rip)        # 605528 <is_checker>
  401d9d:	74 6b                	je     401e0a <validate+0x8a>
  401d9f:	39 3d 77 37 20 00    	cmp    %edi,0x203777(%rip)        # 60551c <vlevel>
  401da5:	74 14                	je     401dbb <validate+0x3b>
  401da7:	bf 92 34 40 00       	mov    $0x403492,%edi
  401dac:	e8 1f ef ff ff       	callq  400cd0 <puts@plt>
  401db1:	b8 00 00 00 00       	mov    $0x0,%eax
  401db6:	e8 4b fd ff ff       	callq  401b06 <check_fail>
  401dbb:	8b 15 57 37 20 00    	mov    0x203757(%rip),%edx        # 605518 <check_level>
  401dc1:	39 d7                	cmp    %edx,%edi
  401dc3:	74 20                	je     401de5 <validate+0x65>
  401dc5:	89 f9                	mov    %edi,%ecx
  401dc7:	be d0 35 40 00       	mov    $0x4035d0,%esi
  401dcc:	bf 01 00 00 00       	mov    $0x1,%edi
  401dd1:	b8 00 00 00 00       	mov    $0x0,%eax
  401dd6:	e8 25 f0 ff ff       	callq  400e00 <__printf_chk@plt>
  401ddb:	b8 00 00 00 00       	mov    $0x0,%eax
  401de0:	e8 21 fd ff ff       	callq  401b06 <check_fail>
  401de5:	0f be 15 5c 43 20 00 	movsbl 0x20435c(%rip),%edx        # 606148 <target_prefix>
  401dec:	41 b8 40 55 60 00    	mov    $0x605540,%r8d
  401df2:	89 f9                	mov    %edi,%ecx
  401df4:	be b0 34 40 00       	mov    $0x4034b0,%esi
  401df9:	bf 01 00 00 00       	mov    $0x1,%edi
  401dfe:	b8 00 00 00 00       	mov    $0x0,%eax
  401e03:	e8 f8 ef ff ff       	callq  400e00 <__printf_chk@plt>
  401e08:	eb 49                	jmp    401e53 <validate+0xd3>
  401e0a:	3b 3d 0c 37 20 00    	cmp    0x20370c(%rip),%edi        # 60551c <vlevel>
  401e10:	74 18                	je     401e2a <validate+0xaa>
  401e12:	bf 92 34 40 00       	mov    $0x403492,%edi
  401e17:	e8 b4 ee ff ff       	callq  400cd0 <puts@plt>
  401e1c:	89 de                	mov    %ebx,%esi
  401e1e:	bf 00 00 00 00       	mov    $0x0,%edi
  401e23:	e8 65 fd ff ff       	callq  401b8d <notify_server>
  401e28:	eb 29                	jmp    401e53 <validate+0xd3>
  401e2a:	0f be 0d 17 43 20 00 	movsbl 0x204317(%rip),%ecx        # 606148 <target_prefix>
  401e31:	89 fa                	mov    %edi,%edx
  401e33:	be f8 35 40 00       	mov    $0x4035f8,%esi
  401e38:	bf 01 00 00 00       	mov    $0x1,%edi
  401e3d:	b8 00 00 00 00       	mov    $0x0,%eax
  401e42:	e8 b9 ef ff ff       	callq  400e00 <__printf_chk@plt>
  401e47:	89 de                	mov    %ebx,%esi
  401e49:	bf 01 00 00 00       	mov    $0x1,%edi
  401e4e:	e8 3a fd ff ff       	callq  401b8d <notify_server>
  401e53:	5b                   	pop    %rbx
  401e54:	41 5a                	pop    %r10
  401e56:	5d                   	pop    %rbp
  401e57:	49 8d 62 f8          	lea    -0x8(%r10),%rsp
  401e5b:	c3                   	retq   

0000000000401e5c <fail>:
  401e5c:	48 83 ec 08          	sub    $0x8,%rsp
  401e60:	83 3d c1 36 20 00 00 	cmpl   $0x0,0x2036c1(%rip)        # 605528 <is_checker>
  401e67:	74 0a                	je     401e73 <fail+0x17>
  401e69:	b8 00 00 00 00       	mov    $0x0,%eax
  401e6e:	e8 93 fc ff ff       	callq  401b06 <check_fail>
  401e73:	89 fe                	mov    %edi,%esi
  401e75:	bf 00 00 00 00       	mov    $0x0,%edi
  401e7a:	e8 0e fd ff ff       	callq  401b8d <notify_server>
  401e7f:	48 83 c4 08          	add    $0x8,%rsp
  401e83:	c3                   	retq   

0000000000401e84 <bushandler>:
  401e84:	48 83 ec 08          	sub    $0x8,%rsp
  401e88:	83 3d 99 36 20 00 00 	cmpl   $0x0,0x203699(%rip)        # 605528 <is_checker>
  401e8f:	74 14                	je     401ea5 <bushandler+0x21>
  401e91:	bf c5 34 40 00       	mov    $0x4034c5,%edi
  401e96:	e8 35 ee ff ff       	callq  400cd0 <puts@plt>
  401e9b:	b8 00 00 00 00       	mov    $0x0,%eax
  401ea0:	e8 61 fc ff ff       	callq  401b06 <check_fail>
  401ea5:	bf 30 36 40 00       	mov    $0x403630,%edi
  401eaa:	e8 21 ee ff ff       	callq  400cd0 <puts@plt>
  401eaf:	bf cf 34 40 00       	mov    $0x4034cf,%edi
  401eb4:	e8 17 ee ff ff       	callq  400cd0 <puts@plt>
  401eb9:	be 00 00 00 00       	mov    $0x0,%esi
  401ebe:	bf 00 00 00 00       	mov    $0x0,%edi
  401ec3:	e8 c5 fc ff ff       	callq  401b8d <notify_server>
  401ec8:	bf 01 00 00 00       	mov    $0x1,%edi
  401ecd:	e8 7e ef ff ff       	callq  400e50 <exit@plt>

0000000000401ed2 <seghandler>:
  401ed2:	48 83 ec 08          	sub    $0x8,%rsp
  401ed6:	83 3d 4b 36 20 00 00 	cmpl   $0x0,0x20364b(%rip)        # 605528 <is_checker>
  401edd:	74 14                	je     401ef3 <seghandler+0x21>
  401edf:	bf e5 34 40 00       	mov    $0x4034e5,%edi
  401ee4:	e8 e7 ed ff ff       	callq  400cd0 <puts@plt>
  401ee9:	b8 00 00 00 00       	mov    $0x0,%eax
  401eee:	e8 13 fc ff ff       	callq  401b06 <check_fail>
  401ef3:	bf 50 36 40 00       	mov    $0x403650,%edi
  401ef8:	e8 d3 ed ff ff       	callq  400cd0 <puts@plt>
  401efd:	bf cf 34 40 00       	mov    $0x4034cf,%edi
  401f02:	e8 c9 ed ff ff       	callq  400cd0 <puts@plt>
  401f07:	be 00 00 00 00       	mov    $0x0,%esi
  401f0c:	bf 00 00 00 00       	mov    $0x0,%edi
  401f11:	e8 77 fc ff ff       	callq  401b8d <notify_server>
  401f16:	bf 01 00 00 00       	mov    $0x1,%edi
  401f1b:	e8 30 ef ff ff       	callq  400e50 <exit@plt>

0000000000401f20 <illegalhandler>:
  401f20:	48 83 ec 08          	sub    $0x8,%rsp
  401f24:	83 3d fd 35 20 00 00 	cmpl   $0x0,0x2035fd(%rip)        # 605528 <is_checker>
  401f2b:	74 14                	je     401f41 <illegalhandler+0x21>
  401f2d:	bf f8 34 40 00       	mov    $0x4034f8,%edi
  401f32:	e8 99 ed ff ff       	callq  400cd0 <puts@plt>
  401f37:	b8 00 00 00 00       	mov    $0x0,%eax
  401f3c:	e8 c5 fb ff ff       	callq  401b06 <check_fail>
  401f41:	bf 78 36 40 00       	mov    $0x403678,%edi
  401f46:	e8 85 ed ff ff       	callq  400cd0 <puts@plt>
  401f4b:	bf cf 34 40 00       	mov    $0x4034cf,%edi
  401f50:	e8 7b ed ff ff       	callq  400cd0 <puts@plt>
  401f55:	be 00 00 00 00       	mov    $0x0,%esi
  401f5a:	bf 00 00 00 00       	mov    $0x0,%edi
  401f5f:	e8 29 fc ff ff       	callq  401b8d <notify_server>
  401f64:	bf 01 00 00 00       	mov    $0x1,%edi
  401f69:	e8 e2 ee ff ff       	callq  400e50 <exit@plt>

0000000000401f6e <sigalrmhandler>:
  401f6e:	48 83 ec 08          	sub    $0x8,%rsp
  401f72:	83 3d af 35 20 00 00 	cmpl   $0x0,0x2035af(%rip)        # 605528 <is_checker>
  401f79:	74 14                	je     401f8f <sigalrmhandler+0x21>
  401f7b:	bf 0c 35 40 00       	mov    $0x40350c,%edi
  401f80:	e8 4b ed ff ff       	callq  400cd0 <puts@plt>
  401f85:	b8 00 00 00 00       	mov    $0x0,%eax
  401f8a:	e8 77 fb ff ff       	callq  401b06 <check_fail>
  401f8f:	ba 05 00 00 00       	mov    $0x5,%edx
  401f94:	be a8 36 40 00       	mov    $0x4036a8,%esi
  401f99:	bf 01 00 00 00       	mov    $0x1,%edi
  401f9e:	b8 00 00 00 00       	mov    $0x0,%eax
  401fa3:	e8 58 ee ff ff       	callq  400e00 <__printf_chk@plt>
  401fa8:	be 00 00 00 00       	mov    $0x0,%esi
  401fad:	bf 00 00 00 00       	mov    $0x0,%edi
  401fb2:	e8 d6 fb ff ff       	callq  401b8d <notify_server>
  401fb7:	bf 01 00 00 00       	mov    $0x1,%edi
  401fbc:	e8 8f ee ff ff       	callq  400e50 <exit@plt>

0000000000401fc1 <launch>:
  401fc1:	55                   	push   %rbp
  401fc2:	48 89 e5             	mov    %rsp,%rbp
  401fc5:	48 83 ec 10          	sub    $0x10,%rsp
  401fc9:	48 89 fa             	mov    %rdi,%rdx
  401fcc:	64 48 8b 04 25 28 00 	mov    %fs:0x28,%rax
  401fd3:	00 00 
  401fd5:	48 89 45 f8          	mov    %rax,-0x8(%rbp)
  401fd9:	31 c0                	xor    %eax,%eax
  401fdb:	48 8d 47 1e          	lea    0x1e(%rdi),%rax
  401fdf:	48 83 e0 f0          	and    $0xfffffffffffffff0,%rax
  401fe3:	48 29 c4             	sub    %rax,%rsp
  401fe6:	48 8d 7c 24 0f       	lea    0xf(%rsp),%rdi
  401feb:	48 83 e7 f0          	and    $0xfffffffffffffff0,%rdi
  401fef:	be f4 00 00 00       	mov    $0xf4,%esi
  401ff4:	e8 17 ed ff ff       	callq  400d10 <memset@plt>
  401ff9:	48 8b 05 c0 34 20 00 	mov    0x2034c0(%rip),%rax        # 6054c0 <stdin@@GLIBC_2.2.5>
  402000:	48 39 05 09 35 20 00 	cmp    %rax,0x203509(%rip)        # 605510 <infile>
  402007:	75 14                	jne    40201d <launch+0x5c>
  402009:	be 14 35 40 00       	mov    $0x403514,%esi
  40200e:	bf 01 00 00 00       	mov    $0x1,%edi
  402013:	b8 00 00 00 00       	mov    $0x0,%eax
  402018:	e8 e3 ed ff ff       	callq  400e00 <__printf_chk@plt>
  40201d:	c7 05 f5 34 20 00 00 	movl   $0x0,0x2034f5(%rip)        # 60551c <vlevel>
  402024:	00 00 00 
  402027:	b8 00 00 00 00       	mov    $0x0,%eax
  40202c:	e8 41 fa ff ff       	callq  401a72 <test>
  402031:	83 3d f0 34 20 00 00 	cmpl   $0x0,0x2034f0(%rip)        # 605528 <is_checker>
  402038:	74 14                	je     40204e <launch+0x8d>
  40203a:	bf 21 35 40 00       	mov    $0x403521,%edi
  40203f:	e8 8c ec ff ff       	callq  400cd0 <puts@plt>
  402044:	b8 00 00 00 00       	mov    $0x0,%eax
  402049:	e8 b8 fa ff ff       	callq  401b06 <check_fail>
  40204e:	bf 2c 35 40 00       	mov    $0x40352c,%edi
  402053:	e8 78 ec ff ff       	callq  400cd0 <puts@plt>
  402058:	48 8b 45 f8          	mov    -0x8(%rbp),%rax
  40205c:	64 48 33 04 25 28 00 	xor    %fs:0x28,%rax
  402063:	00 00 
  402065:	74 05                	je     40206c <launch+0xab>
  402067:	e8 84 ec ff ff       	callq  400cf0 <__stack_chk_fail@plt>
  40206c:	c9                   	leaveq 
  40206d:	c3                   	retq   

000000000040206e <stable_launch>:
  40206e:	53                   	push   %rbx
  40206f:	48 89 3d 92 34 20 00 	mov    %rdi,0x203492(%rip)        # 605508 <global_offset>
  402076:	41 b9 00 00 00 00    	mov    $0x0,%r9d
  40207c:	41 b8 00 00 00 00    	mov    $0x0,%r8d
  402082:	b9 32 01 00 00       	mov    $0x132,%ecx
  402087:	ba 07 00 00 00       	mov    $0x7,%edx
  40208c:	be 00 00 10 00       	mov    $0x100000,%esi
  402091:	bf 00 60 58 55       	mov    $0x55586000,%edi
  402096:	e8 65 ec ff ff       	callq  400d00 <mmap@plt>
  40209b:	48 89 c3             	mov    %rax,%rbx
  40209e:	48 3d 00 60 58 55    	cmp    $0x55586000,%rax
  4020a4:	74 37                	je     4020dd <stable_launch+0x6f>
  4020a6:	be 00 00 10 00       	mov    $0x100000,%esi
  4020ab:	48 89 c7             	mov    %rax,%rdi
  4020ae:	e8 3d ed ff ff       	callq  400df0 <munmap@plt>
  4020b3:	b9 00 60 58 55       	mov    $0x55586000,%ecx
  4020b8:	ba e0 36 40 00       	mov    $0x4036e0,%edx
  4020bd:	be 01 00 00 00       	mov    $0x1,%esi
  4020c2:	48 8b 3d 17 34 20 00 	mov    0x203417(%rip),%rdi        # 6054e0 <stderr@@GLIBC_2.2.5>
  4020c9:	b8 00 00 00 00       	mov    $0x0,%eax
  4020ce:	e8 9d ed ff ff       	callq  400e70 <__fprintf_chk@plt>
  4020d3:	bf 01 00 00 00       	mov    $0x1,%edi
  4020d8:	e8 73 ed ff ff       	callq  400e50 <exit@plt>
  4020dd:	48 8d 90 f8 ff 0f 00 	lea    0xffff8(%rax),%rdx
  4020e4:	48 89 15 65 40 20 00 	mov    %rdx,0x204065(%rip)        # 606150 <stack_top>
  4020eb:	48 89 e0             	mov    %rsp,%rax
  4020ee:	48 89 d4             	mov    %rdx,%rsp
  4020f1:	48 89 c2             	mov    %rax,%rdx
  4020f4:	48 89 15 05 34 20 00 	mov    %rdx,0x203405(%rip)        # 605500 <global_save_stack>
  4020fb:	48 8b 3d 06 34 20 00 	mov    0x203406(%rip),%rdi        # 605508 <global_offset>
  402102:	e8 ba fe ff ff       	callq  401fc1 <launch>
  402107:	48 8b 05 f2 33 20 00 	mov    0x2033f2(%rip),%rax        # 605500 <global_save_stack>
  40210e:	48 89 c4             	mov    %rax,%rsp
  402111:	be 00 00 10 00       	mov    $0x100000,%esi
  402116:	48 89 df             	mov    %rbx,%rdi
  402119:	e8 d2 ec ff ff       	callq  400df0 <munmap@plt>
  40211e:	5b                   	pop    %rbx
  40211f:	c3                   	retq   

0000000000402120 <rio_readinitb>:
  402120:	89 37                	mov    %esi,(%rdi)
  402122:	c7 47 04 00 00 00 00 	movl   $0x0,0x4(%rdi)
  402129:	48 8d 47 10          	lea    0x10(%rdi),%rax
  40212d:	48 89 47 08          	mov    %rax,0x8(%rdi)
  402131:	c3                   	retq   

0000000000402132 <sigalrm_handler>:
  402132:	48 83 ec 08          	sub    $0x8,%rsp
  402136:	b9 00 00 00 00       	mov    $0x0,%ecx
  40213b:	ba 20 37 40 00       	mov    $0x403720,%edx
  402140:	be 01 00 00 00       	mov    $0x1,%esi
  402145:	48 8b 3d 94 33 20 00 	mov    0x203394(%rip),%rdi        # 6054e0 <stderr@@GLIBC_2.2.5>
  40214c:	b8 00 00 00 00       	mov    $0x0,%eax
  402151:	e8 1a ed ff ff       	callq  400e70 <__fprintf_chk@plt>
  402156:	bf 01 00 00 00       	mov    $0x1,%edi
  40215b:	e8 f0 ec ff ff       	callq  400e50 <exit@plt>

0000000000402160 <rio_writen>:
  402160:	41 55                	push   %r13
  402162:	41 54                	push   %r12
  402164:	55                   	push   %rbp
  402165:	53                   	push   %rbx
  402166:	48 83 ec 08          	sub    $0x8,%rsp
  40216a:	41 89 fc             	mov    %edi,%r12d
  40216d:	48 89 f5             	mov    %rsi,%rbp
  402170:	49 89 d5             	mov    %rdx,%r13
  402173:	48 89 d3             	mov    %rdx,%rbx
  402176:	eb 28                	jmp    4021a0 <rio_writen+0x40>
  402178:	48 89 da             	mov    %rbx,%rdx
  40217b:	48 89 ee             	mov    %rbp,%rsi
  40217e:	44 89 e7             	mov    %r12d,%edi
  402181:	e8 5a eb ff ff       	callq  400ce0 <write@plt>
  402186:	48 85 c0             	test   %rax,%rax
  402189:	7f 0f                	jg     40219a <rio_writen+0x3a>
  40218b:	e8 00 eb ff ff       	callq  400c90 <__errno_location@plt>
  402190:	83 38 04             	cmpl   $0x4,(%rax)
  402193:	75 15                	jne    4021aa <rio_writen+0x4a>
  402195:	b8 00 00 00 00       	mov    $0x0,%eax
  40219a:	48 29 c3             	sub    %rax,%rbx
  40219d:	48 01 c5             	add    %rax,%rbp
  4021a0:	48 85 db             	test   %rbx,%rbx
  4021a3:	75 d3                	jne    402178 <rio_writen+0x18>
  4021a5:	4c 89 e8             	mov    %r13,%rax
  4021a8:	eb 07                	jmp    4021b1 <rio_writen+0x51>
  4021aa:	48 c7 c0 ff ff ff ff 	mov    $0xffffffffffffffff,%rax
  4021b1:	48 83 c4 08          	add    $0x8,%rsp
  4021b5:	5b                   	pop    %rbx
  4021b6:	5d                   	pop    %rbp
  4021b7:	41 5c                	pop    %r12
  4021b9:	41 5d                	pop    %r13
  4021bb:	c3                   	retq   

00000000004021bc <rio_read>:
  4021bc:	41 55                	push   %r13
  4021be:	41 54                	push   %r12
  4021c0:	55                   	push   %rbp
  4021c1:	53                   	push   %rbx
  4021c2:	48 83 ec 08          	sub    $0x8,%rsp
  4021c6:	48 89 fb             	mov    %rdi,%rbx
  4021c9:	49 89 f5             	mov    %rsi,%r13
  4021cc:	49 89 d4             	mov    %rdx,%r12
  4021cf:	eb 2e                	jmp    4021ff <rio_read+0x43>
  4021d1:	48 8d 6b 10          	lea    0x10(%rbx),%rbp
  4021d5:	8b 3b                	mov    (%rbx),%edi
  4021d7:	ba 00 20 00 00       	mov    $0x2000,%edx
  4021dc:	48 89 ee             	mov    %rbp,%rsi
  4021df:	e8 5c eb ff ff       	callq  400d40 <read@plt>
  4021e4:	89 43 04             	mov    %eax,0x4(%rbx)
  4021e7:	85 c0                	test   %eax,%eax
  4021e9:	79 0c                	jns    4021f7 <rio_read+0x3b>
  4021eb:	e8 a0 ea ff ff       	callq  400c90 <__errno_location@plt>
  4021f0:	83 38 04             	cmpl   $0x4,(%rax)
  4021f3:	74 0a                	je     4021ff <rio_read+0x43>
  4021f5:	eb 37                	jmp    40222e <rio_read+0x72>
  4021f7:	85 c0                	test   %eax,%eax
  4021f9:	74 3c                	je     402237 <rio_read+0x7b>
  4021fb:	48 89 6b 08          	mov    %rbp,0x8(%rbx)
  4021ff:	8b 6b 04             	mov    0x4(%rbx),%ebp
  402202:	85 ed                	test   %ebp,%ebp
  402204:	7e cb                	jle    4021d1 <rio_read+0x15>
  402206:	89 e8                	mov    %ebp,%eax
  402208:	49 39 c4             	cmp    %rax,%r12
  40220b:	77 03                	ja     402210 <rio_read+0x54>
  40220d:	44 89 e5             	mov    %r12d,%ebp
  402210:	4c 63 e5             	movslq %ebp,%r12
  402213:	48 8b 73 08          	mov    0x8(%rbx),%rsi
  402217:	4c 89 e2             	mov    %r12,%rdx
  40221a:	4c 89 ef             	mov    %r13,%rdi
  40221d:	e8 7e eb ff ff       	callq  400da0 <memcpy@plt>
  402222:	4c 01 63 08          	add    %r12,0x8(%rbx)
  402226:	29 6b 04             	sub    %ebp,0x4(%rbx)
  402229:	4c 89 e0             	mov    %r12,%rax
  40222c:	eb 0e                	jmp    40223c <rio_read+0x80>
  40222e:	48 c7 c0 ff ff ff ff 	mov    $0xffffffffffffffff,%rax
  402235:	eb 05                	jmp    40223c <rio_read+0x80>
  402237:	b8 00 00 00 00       	mov    $0x0,%eax
  40223c:	48 83 c4 08          	add    $0x8,%rsp
  402240:	5b                   	pop    %rbx
  402241:	5d                   	pop    %rbp
  402242:	41 5c                	pop    %r12
  402244:	41 5d                	pop    %r13
  402246:	c3                   	retq   

0000000000402247 <rio_readlineb>:
  402247:	41 55                	push   %r13
  402249:	41 54                	push   %r12
  40224b:	55                   	push   %rbp
  40224c:	53                   	push   %rbx
  40224d:	48 83 ec 18          	sub    $0x18,%rsp
  402251:	49 89 fd             	mov    %rdi,%r13
  402254:	48 89 f5             	mov    %rsi,%rbp
  402257:	49 89 d4             	mov    %rdx,%r12
  40225a:	64 48 8b 04 25 28 00 	mov    %fs:0x28,%rax
  402261:	00 00 
  402263:	48 89 44 24 08       	mov    %rax,0x8(%rsp)
  402268:	31 c0                	xor    %eax,%eax
  40226a:	bb 01 00 00 00       	mov    $0x1,%ebx
  40226f:	eb 3f                	jmp    4022b0 <rio_readlineb+0x69>
  402271:	ba 01 00 00 00       	mov    $0x1,%edx
  402276:	48 8d 74 24 07       	lea    0x7(%rsp),%rsi
  40227b:	4c 89 ef             	mov    %r13,%rdi
  40227e:	e8 39 ff ff ff       	callq  4021bc <rio_read>
  402283:	83 f8 01             	cmp    $0x1,%eax
  402286:	75 15                	jne    40229d <rio_readlineb+0x56>
  402288:	48 8d 45 01          	lea    0x1(%rbp),%rax
  40228c:	0f b6 54 24 07       	movzbl 0x7(%rsp),%edx
  402291:	88 55 00             	mov    %dl,0x0(%rbp)
  402294:	80 7c 24 07 0a       	cmpb   $0xa,0x7(%rsp)
  402299:	75 0e                	jne    4022a9 <rio_readlineb+0x62>
  40229b:	eb 1a                	jmp    4022b7 <rio_readlineb+0x70>
  40229d:	85 c0                	test   %eax,%eax
  40229f:	75 22                	jne    4022c3 <rio_readlineb+0x7c>
  4022a1:	48 83 fb 01          	cmp    $0x1,%rbx
  4022a5:	75 13                	jne    4022ba <rio_readlineb+0x73>
  4022a7:	eb 23                	jmp    4022cc <rio_readlineb+0x85>
  4022a9:	48 83 c3 01          	add    $0x1,%rbx
  4022ad:	48 89 c5             	mov    %rax,%rbp
  4022b0:	4c 39 e3             	cmp    %r12,%rbx
  4022b3:	72 bc                	jb     402271 <rio_readlineb+0x2a>
  4022b5:	eb 03                	jmp    4022ba <rio_readlineb+0x73>
  4022b7:	48 89 c5             	mov    %rax,%rbp
  4022ba:	c6 45 00 00          	movb   $0x0,0x0(%rbp)
  4022be:	48 89 d8             	mov    %rbx,%rax
  4022c1:	eb 0e                	jmp    4022d1 <rio_readlineb+0x8a>
  4022c3:	48 c7 c0 ff ff ff ff 	mov    $0xffffffffffffffff,%rax
  4022ca:	eb 05                	jmp    4022d1 <rio_readlineb+0x8a>
  4022cc:	b8 00 00 00 00       	mov    $0x0,%eax
  4022d1:	48 8b 4c 24 08       	mov    0x8(%rsp),%rcx
  4022d6:	64 48 33 0c 25 28 00 	xor    %fs:0x28,%rcx
  4022dd:	00 00 
  4022df:	74 05                	je     4022e6 <rio_readlineb+0x9f>
  4022e1:	e8 0a ea ff ff       	callq  400cf0 <__stack_chk_fail@plt>
  4022e6:	48 83 c4 18          	add    $0x18,%rsp
  4022ea:	5b                   	pop    %rbx
  4022eb:	5d                   	pop    %rbp
  4022ec:	41 5c                	pop    %r12
  4022ee:	41 5d                	pop    %r13
  4022f0:	c3                   	retq   

00000000004022f1 <urlencode>:
  4022f1:	41 54                	push   %r12
  4022f3:	55                   	push   %rbp
  4022f4:	53                   	push   %rbx
  4022f5:	48 83 ec 10          	sub    $0x10,%rsp
  4022f9:	48 89 fb             	mov    %rdi,%rbx
  4022fc:	48 89 f5             	mov    %rsi,%rbp
  4022ff:	64 48 8b 04 25 28 00 	mov    %fs:0x28,%rax
  402306:	00 00 
  402308:	48 89 44 24 08       	mov    %rax,0x8(%rsp)
  40230d:	31 c0                	xor    %eax,%eax
  40230f:	48 c7 c1 ff ff ff ff 	mov    $0xffffffffffffffff,%rcx
  402316:	f2 ae                	repnz scas %es:(%rdi),%al
  402318:	48 f7 d1             	not    %rcx
  40231b:	8d 41 ff             	lea    -0x1(%rcx),%eax
  40231e:	e9 aa 00 00 00       	jmpq   4023cd <urlencode+0xdc>
  402323:	44 0f b6 03          	movzbl (%rbx),%r8d
  402327:	41 80 f8 2a          	cmp    $0x2a,%r8b
  40232b:	0f 94 c2             	sete   %dl
  40232e:	41 80 f8 2d          	cmp    $0x2d,%r8b
  402332:	0f 94 c0             	sete   %al
  402335:	08 c2                	or     %al,%dl
  402337:	75 24                	jne    40235d <urlencode+0x6c>
  402339:	41 80 f8 2e          	cmp    $0x2e,%r8b
  40233d:	74 1e                	je     40235d <urlencode+0x6c>
  40233f:	41 80 f8 5f          	cmp    $0x5f,%r8b
  402343:	74 18                	je     40235d <urlencode+0x6c>
  402345:	41 8d 40 d0          	lea    -0x30(%r8),%eax
  402349:	3c 09                	cmp    $0x9,%al
  40234b:	76 10                	jbe    40235d <urlencode+0x6c>
  40234d:	41 8d 40 bf          	lea    -0x41(%r8),%eax
  402351:	3c 19                	cmp    $0x19,%al
  402353:	76 08                	jbe    40235d <urlencode+0x6c>
  402355:	41 8d 40 9f          	lea    -0x61(%r8),%eax
  402359:	3c 19                	cmp    $0x19,%al
  40235b:	77 0a                	ja     402367 <urlencode+0x76>
  40235d:	44 88 45 00          	mov    %r8b,0x0(%rbp)
  402361:	48 8d 6d 01          	lea    0x1(%rbp),%rbp
  402365:	eb 5f                	jmp    4023c6 <urlencode+0xd5>
  402367:	41 80 f8 20          	cmp    $0x20,%r8b
  40236b:	75 0a                	jne    402377 <urlencode+0x86>
  40236d:	c6 45 00 2b          	movb   $0x2b,0x0(%rbp)
  402371:	48 8d 6d 01          	lea    0x1(%rbp),%rbp
  402375:	eb 4f                	jmp    4023c6 <urlencode+0xd5>
  402377:	41 8d 40 e0          	lea    -0x20(%r8),%eax
  40237b:	3c 5f                	cmp    $0x5f,%al
  40237d:	0f 96 c2             	setbe  %dl
  402380:	41 80 f8 09          	cmp    $0x9,%r8b
  402384:	0f 94 c0             	sete   %al
  402387:	08 c2                	or     %al,%dl
  402389:	74 50                	je     4023db <urlencode+0xea>
  40238b:	45 0f b6 c0          	movzbl %r8b,%r8d
  40238f:	b9 b8 37 40 00       	mov    $0x4037b8,%ecx
  402394:	ba 08 00 00 00       	mov    $0x8,%edx
  402399:	be 01 00 00 00       	mov    $0x1,%esi
  40239e:	48 89 e7             	mov    %rsp,%rdi
  4023a1:	b8 00 00 00 00       	mov    $0x0,%eax
  4023a6:	e8 d5 ea ff ff       	callq  400e80 <__sprintf_chk@plt>
  4023ab:	0f b6 04 24          	movzbl (%rsp),%eax
  4023af:	88 45 00             	mov    %al,0x0(%rbp)
  4023b2:	0f b6 44 24 01       	movzbl 0x1(%rsp),%eax
  4023b7:	88 45 01             	mov    %al,0x1(%rbp)
  4023ba:	0f b6 44 24 02       	movzbl 0x2(%rsp),%eax
  4023bf:	88 45 02             	mov    %al,0x2(%rbp)
  4023c2:	48 8d 6d 03          	lea    0x3(%rbp),%rbp
  4023c6:	48 83 c3 01          	add    $0x1,%rbx
  4023ca:	44 89 e0             	mov    %r12d,%eax
  4023cd:	44 8d 60 ff          	lea    -0x1(%rax),%r12d
  4023d1:	85 c0                	test   %eax,%eax
  4023d3:	0f 85 4a ff ff ff    	jne    402323 <urlencode+0x32>
  4023d9:	eb 05                	jmp    4023e0 <urlencode+0xef>
  4023db:	b8 ff ff ff ff       	mov    $0xffffffff,%eax
  4023e0:	48 8b 74 24 08       	mov    0x8(%rsp),%rsi
  4023e5:	64 48 33 34 25 28 00 	xor    %fs:0x28,%rsi
  4023ec:	00 00 
  4023ee:	74 05                	je     4023f5 <urlencode+0x104>
  4023f0:	e8 fb e8 ff ff       	callq  400cf0 <__stack_chk_fail@plt>
  4023f5:	48 83 c4 10          	add    $0x10,%rsp
  4023f9:	5b                   	pop    %rbx
  4023fa:	5d                   	pop    %rbp
  4023fb:	41 5c                	pop    %r12
  4023fd:	c3                   	retq   

00000000004023fe <submitr>:
  4023fe:	41 57                	push   %r15
  402400:	41 56                	push   %r14
  402402:	41 55                	push   %r13
  402404:	41 54                	push   %r12
  402406:	55                   	push   %rbp
  402407:	53                   	push   %rbx
  402408:	48 81 ec 58 a0 00 00 	sub    $0xa058,%rsp
  40240f:	49 89 fc             	mov    %rdi,%r12
  402412:	89 74 24 04          	mov    %esi,0x4(%rsp)
  402416:	49 89 d7             	mov    %rdx,%r15
  402419:	49 89 ce             	mov    %rcx,%r14
  40241c:	4c 89 44 24 08       	mov    %r8,0x8(%rsp)
  402421:	4d 89 cd             	mov    %r9,%r13
  402424:	48 8b 9c 24 90 a0 00 	mov    0xa090(%rsp),%rbx
  40242b:	00 
  40242c:	64 48 8b 04 25 28 00 	mov    %fs:0x28,%rax
  402433:	00 00 
  402435:	48 89 84 24 48 a0 00 	mov    %rax,0xa048(%rsp)
  40243c:	00 
  40243d:	31 c0                	xor    %eax,%eax
  40243f:	c7 44 24 1c 00 00 00 	movl   $0x0,0x1c(%rsp)
  402446:	00 
  402447:	ba 00 00 00 00       	mov    $0x0,%edx
  40244c:	be 01 00 00 00       	mov    $0x1,%esi
  402451:	bf 02 00 00 00       	mov    $0x2,%edi
  402456:	e8 35 ea ff ff       	callq  400e90 <socket@plt>
  40245b:	85 c0                	test   %eax,%eax
  40245d:	79 4e                	jns    4024ad <submitr+0xaf>
  40245f:	48 b8 45 72 72 6f 72 	movabs $0x43203a726f727245,%rax
  402466:	3a 20 43 
  402469:	48 89 03             	mov    %rax,(%rbx)
  40246c:	48 b8 6c 69 65 6e 74 	movabs $0x6e7520746e65696c,%rax
  402473:	20 75 6e 
  402476:	48 89 43 08          	mov    %rax,0x8(%rbx)
  40247a:	48 b8 61 62 6c 65 20 	movabs $0x206f7420656c6261,%rax
  402481:	74 6f 20 
  402484:	48 89 43 10          	mov    %rax,0x10(%rbx)
  402488:	48 b8 63 72 65 61 74 	movabs $0x7320657461657263,%rax
  40248f:	65 20 73 
  402492:	48 89 43 18          	mov    %rax,0x18(%rbx)
  402496:	c7 43 20 6f 63 6b 65 	movl   $0x656b636f,0x20(%rbx)
  40249d:	66 c7 43 24 74 00    	movw   $0x74,0x24(%rbx)
  4024a3:	b8 ff ff ff ff       	mov    $0xffffffff,%eax
  4024a8:	e9 97 06 00 00       	jmpq   402b44 <submitr+0x746>
  4024ad:	89 c5                	mov    %eax,%ebp
  4024af:	4c 89 e7             	mov    %r12,%rdi
  4024b2:	e8 b9 e8 ff ff       	callq  400d70 <gethostbyname@plt>
  4024b7:	48 85 c0             	test   %rax,%rax
  4024ba:	75 67                	jne    402523 <submitr+0x125>
  4024bc:	48 b8 45 72 72 6f 72 	movabs $0x44203a726f727245,%rax
  4024c3:	3a 20 44 
  4024c6:	48 89 03             	mov    %rax,(%rbx)
  4024c9:	48 b8 4e 53 20 69 73 	movabs $0x6e7520736920534e,%rax
  4024d0:	20 75 6e 
  4024d3:	48 89 43 08          	mov    %rax,0x8(%rbx)
  4024d7:	48 b8 61 62 6c 65 20 	movabs $0x206f7420656c6261,%rax
  4024de:	74 6f 20 
  4024e1:	48 89 43 10          	mov    %rax,0x10(%rbx)
  4024e5:	48 b8 72 65 73 6f 6c 	movabs $0x2065766c6f736572,%rax
  4024ec:	76 65 20 
  4024ef:	48 89 43 18          	mov    %rax,0x18(%rbx)
  4024f3:	48 b8 73 65 72 76 65 	movabs $0x6120726576726573,%rax
  4024fa:	72 20 61 
  4024fd:	48 89 43 20          	mov    %rax,0x20(%rbx)
  402501:	c7 43 28 64 64 72 65 	movl   $0x65726464,0x28(%rbx)
  402508:	66 c7 43 2c 73 73    	movw   $0x7373,0x2c(%rbx)
  40250e:	c6 43 2e 00          	movb   $0x0,0x2e(%rbx)
  402512:	89 ef                	mov    %ebp,%edi
  402514:	e8 17 e8 ff ff       	callq  400d30 <close@plt>
  402519:	b8 ff ff ff ff       	mov    $0xffffffff,%eax
  40251e:	e9 21 06 00 00       	jmpq   402b44 <submitr+0x746>
  402523:	48 c7 44 24 20 00 00 	movq   $0x0,0x20(%rsp)
  40252a:	00 00 
  40252c:	48 c7 44 24 28 00 00 	movq   $0x0,0x28(%rsp)
  402533:	00 00 
  402535:	66 c7 44 24 20 02 00 	movw   $0x2,0x20(%rsp)
  40253c:	48 63 50 14          	movslq 0x14(%rax),%rdx
  402540:	48 8b 40 18          	mov    0x18(%rax),%rax
  402544:	48 8b 30             	mov    (%rax),%rsi
  402547:	48 8d 7c 24 24       	lea    0x24(%rsp),%rdi
  40254c:	b9 0c 00 00 00       	mov    $0xc,%ecx
  402551:	e8 2a e8 ff ff       	callq  400d80 <__memmove_chk@plt>
  402556:	0f b7 44 24 04       	movzwl 0x4(%rsp),%eax
  40255b:	66 c1 c8 08          	ror    $0x8,%ax
  40255f:	66 89 44 24 22       	mov    %ax,0x22(%rsp)
  402564:	ba 10 00 00 00       	mov    $0x10,%edx
  402569:	48 8d 74 24 20       	lea    0x20(%rsp),%rsi
  40256e:	89 ef                	mov    %ebp,%edi
  402570:	e8 eb e8 ff ff       	callq  400e60 <connect@plt>
  402575:	85 c0                	test   %eax,%eax
  402577:	79 59                	jns    4025d2 <submitr+0x1d4>
  402579:	48 b8 45 72 72 6f 72 	movabs $0x55203a726f727245,%rax
  402580:	3a 20 55 
  402583:	48 89 03             	mov    %rax,(%rbx)
  402586:	48 b8 6e 61 62 6c 65 	movabs $0x6f7420656c62616e,%rax
  40258d:	20 74 6f 
  402590:	48 89 43 08          	mov    %rax,0x8(%rbx)
  402594:	48 b8 20 63 6f 6e 6e 	movabs $0x7463656e6e6f6320,%rax
  40259b:	65 63 74 
  40259e:	48 89 43 10          	mov    %rax,0x10(%rbx)
  4025a2:	48 b8 20 74 6f 20 74 	movabs $0x20656874206f7420,%rax
  4025a9:	68 65 20 
  4025ac:	48 89 43 18          	mov    %rax,0x18(%rbx)
  4025b0:	c7 43 20 73 65 72 76 	movl   $0x76726573,0x20(%rbx)
  4025b7:	66 c7 43 24 65 72    	movw   $0x7265,0x24(%rbx)
  4025bd:	c6 43 26 00          	movb   $0x0,0x26(%rbx)
  4025c1:	89 ef                	mov    %ebp,%edi
  4025c3:	e8 68 e7 ff ff       	callq  400d30 <close@plt>
  4025c8:	b8 ff ff ff ff       	mov    $0xffffffff,%eax
  4025cd:	e9 72 05 00 00       	jmpq   402b44 <submitr+0x746>
  4025d2:	48 c7 c6 ff ff ff ff 	mov    $0xffffffffffffffff,%rsi
  4025d9:	b8 00 00 00 00       	mov    $0x0,%eax
  4025de:	48 89 f1             	mov    %rsi,%rcx
  4025e1:	4c 89 ef             	mov    %r13,%rdi
  4025e4:	f2 ae                	repnz scas %es:(%rdi),%al
  4025e6:	48 f7 d1             	not    %rcx
  4025e9:	48 89 ca             	mov    %rcx,%rdx
  4025ec:	48 89 f1             	mov    %rsi,%rcx
  4025ef:	4c 89 ff             	mov    %r15,%rdi
  4025f2:	f2 ae                	repnz scas %es:(%rdi),%al
  4025f4:	48 f7 d1             	not    %rcx
  4025f7:	49 89 c8             	mov    %rcx,%r8
  4025fa:	48 89 f1             	mov    %rsi,%rcx
  4025fd:	4c 89 f7             	mov    %r14,%rdi
  402600:	f2 ae                	repnz scas %es:(%rdi),%al
  402602:	48 f7 d1             	not    %rcx
  402605:	4d 8d 44 08 fe       	lea    -0x2(%r8,%rcx,1),%r8
  40260a:	48 89 f1             	mov    %rsi,%rcx
  40260d:	48 8b 7c 24 08       	mov    0x8(%rsp),%rdi
  402612:	f2 ae                	repnz scas %es:(%rdi),%al
  402614:	48 89 c8             	mov    %rcx,%rax
  402617:	48 f7 d0             	not    %rax
  40261a:	49 8d 4c 00 ff       	lea    -0x1(%r8,%rax,1),%rcx
  40261f:	48 8d 44 52 fd       	lea    -0x3(%rdx,%rdx,2),%rax
  402624:	48 8d 84 01 80 00 00 	lea    0x80(%rcx,%rax,1),%rax
  40262b:	00 
  40262c:	48 3d 00 20 00 00    	cmp    $0x2000,%rax
  402632:	76 72                	jbe    4026a6 <submitr+0x2a8>
  402634:	48 b8 45 72 72 6f 72 	movabs $0x52203a726f727245,%rax
  40263b:	3a 20 52 
  40263e:	48 89 03             	mov    %rax,(%rbx)
  402641:	48 b8 65 73 75 6c 74 	movabs $0x747320746c757365,%rax
  402648:	20 73 74 
  40264b:	48 89 43 08          	mov    %rax,0x8(%rbx)
  40264f:	48 b8 72 69 6e 67 20 	movabs $0x6f6f7420676e6972,%rax
  402656:	74 6f 6f 
  402659:	48 89 43 10          	mov    %rax,0x10(%rbx)
  40265d:	48 b8 20 6c 61 72 67 	movabs $0x202e656772616c20,%rax
  402664:	65 2e 20 
  402667:	48 89 43 18          	mov    %rax,0x18(%rbx)
  40266b:	48 b8 49 6e 63 72 65 	movabs $0x6573616572636e49,%rax
  402672:	61 73 65 
  402675:	48 89 43 20          	mov    %rax,0x20(%rbx)
  402679:	48 b8 20 53 55 42 4d 	movabs $0x5254494d42555320,%rax
  402680:	49 54 52 
  402683:	48 89 43 28          	mov    %rax,0x28(%rbx)
  402687:	48 b8 5f 4d 41 58 42 	movabs $0x46554258414d5f,%rax
  40268e:	55 46 00 
  402691:	48 89 43 30          	mov    %rax,0x30(%rbx)
  402695:	89 ef                	mov    %ebp,%edi
  402697:	e8 94 e6 ff ff       	callq  400d30 <close@plt>
  40269c:	b8 ff ff ff ff       	mov    $0xffffffff,%eax
  4026a1:	e9 9e 04 00 00       	jmpq   402b44 <submitr+0x746>
  4026a6:	48 8d b4 24 40 40 00 	lea    0x4040(%rsp),%rsi
  4026ad:	00 
  4026ae:	b9 00 04 00 00       	mov    $0x400,%ecx
  4026b3:	b8 00 00 00 00       	mov    $0x0,%eax
  4026b8:	48 89 f7             	mov    %rsi,%rdi
  4026bb:	f3 48 ab             	rep stos %rax,%es:(%rdi)
  4026be:	4c 89 ef             	mov    %r13,%rdi
  4026c1:	e8 2b fc ff ff       	callq  4022f1 <urlencode>
  4026c6:	85 c0                	test   %eax,%eax
  4026c8:	0f 89 8a 00 00 00    	jns    402758 <submitr+0x35a>
  4026ce:	48 b8 45 72 72 6f 72 	movabs $0x52203a726f727245,%rax
  4026d5:	3a 20 52 
  4026d8:	48 89 03             	mov    %rax,(%rbx)
  4026db:	48 b8 65 73 75 6c 74 	movabs $0x747320746c757365,%rax
  4026e2:	20 73 74 
  4026e5:	48 89 43 08          	mov    %rax,0x8(%rbx)
  4026e9:	48 b8 72 69 6e 67 20 	movabs $0x6e6f6320676e6972,%rax
  4026f0:	63 6f 6e 
  4026f3:	48 89 43 10          	mov    %rax,0x10(%rbx)
  4026f7:	48 b8 74 61 69 6e 73 	movabs $0x6e6120736e696174,%rax
  4026fe:	20 61 6e 
  402701:	48 89 43 18          	mov    %rax,0x18(%rbx)
  402705:	48 b8 20 69 6c 6c 65 	movabs $0x6c6167656c6c6920,%rax
  40270c:	67 61 6c 
  40270f:	48 89 43 20          	mov    %rax,0x20(%rbx)
  402713:	48 b8 20 6f 72 20 75 	movabs $0x72706e7520726f20,%rax
  40271a:	6e 70 72 
  40271d:	48 89 43 28          	mov    %rax,0x28(%rbx)
  402721:	48 b8 69 6e 74 61 62 	movabs $0x20656c6261746e69,%rax
  402728:	6c 65 20 
  40272b:	48 89 43 30          	mov    %rax,0x30(%rbx)
  40272f:	48 b8 63 68 61 72 61 	movabs $0x6574636172616863,%rax
  402736:	63 74 65 
  402739:	48 89 43 38          	mov    %rax,0x38(%rbx)
  40273d:	66 c7 43 40 72 2e    	movw   $0x2e72,0x40(%rbx)
  402743:	c6 43 42 00          	movb   $0x0,0x42(%rbx)
  402747:	89 ef                	mov    %ebp,%edi
  402749:	e8 e2 e5 ff ff       	callq  400d30 <close@plt>
  40274e:	b8 ff ff ff ff       	mov    $0xffffffff,%eax
  402753:	e9 ec 03 00 00       	jmpq   402b44 <submitr+0x746>
  402758:	4c 8d ac 24 40 20 00 	lea    0x2040(%rsp),%r13
  40275f:	00 
  402760:	41 54                	push   %r12
  402762:	48 8d 84 24 48 40 00 	lea    0x4048(%rsp),%rax
  402769:	00 
  40276a:	50                   	push   %rax
  40276b:	4d 89 f9             	mov    %r15,%r9
  40276e:	4d 89 f0             	mov    %r14,%r8
  402771:	b9 48 37 40 00       	mov    $0x403748,%ecx
  402776:	ba 00 20 00 00       	mov    $0x2000,%edx
  40277b:	be 01 00 00 00       	mov    $0x1,%esi
  402780:	4c 89 ef             	mov    %r13,%rdi
  402783:	b8 00 00 00 00       	mov    $0x0,%eax
  402788:	e8 f3 e6 ff ff       	callq  400e80 <__sprintf_chk@plt>
  40278d:	b8 00 00 00 00       	mov    $0x0,%eax
  402792:	48 c7 c1 ff ff ff ff 	mov    $0xffffffffffffffff,%rcx
  402799:	4c 89 ef             	mov    %r13,%rdi
  40279c:	f2 ae                	repnz scas %es:(%rdi),%al
  40279e:	48 f7 d1             	not    %rcx
  4027a1:	48 8d 51 ff          	lea    -0x1(%rcx),%rdx
  4027a5:	4c 89 ee             	mov    %r13,%rsi
  4027a8:	89 ef                	mov    %ebp,%edi
  4027aa:	e8 b1 f9 ff ff       	callq  402160 <rio_writen>
  4027af:	48 83 c4 10          	add    $0x10,%rsp
  4027b3:	48 85 c0             	test   %rax,%rax
  4027b6:	79 6e                	jns    402826 <submitr+0x428>
  4027b8:	48 b8 45 72 72 6f 72 	movabs $0x43203a726f727245,%rax
  4027bf:	3a 20 43 
  4027c2:	48 89 03             	mov    %rax,(%rbx)
  4027c5:	48 b8 6c 69 65 6e 74 	movabs $0x6e7520746e65696c,%rax
  4027cc:	20 75 6e 
  4027cf:	48 89 43 08          	mov    %rax,0x8(%rbx)
  4027d3:	48 b8 61 62 6c 65 20 	movabs $0x206f7420656c6261,%rax
  4027da:	74 6f 20 
  4027dd:	48 89 43 10          	mov    %rax,0x10(%rbx)
  4027e1:	48 b8 77 72 69 74 65 	movabs $0x6f74206574697277,%rax
  4027e8:	20 74 6f 
  4027eb:	48 89 43 18          	mov    %rax,0x18(%rbx)
  4027ef:	48 b8 20 74 68 65 20 	movabs $0x7365722065687420,%rax
  4027f6:	72 65 73 
  4027f9:	48 89 43 20          	mov    %rax,0x20(%rbx)
  4027fd:	48 b8 75 6c 74 20 73 	movabs $0x7672657320746c75,%rax
  402804:	65 72 76 
  402807:	48 89 43 28          	mov    %rax,0x28(%rbx)
  40280b:	66 c7 43 30 65 72    	movw   $0x7265,0x30(%rbx)
  402811:	c6 43 32 00          	movb   $0x0,0x32(%rbx)
  402815:	89 ef                	mov    %ebp,%edi
  402817:	e8 14 e5 ff ff       	callq  400d30 <close@plt>
  40281c:	b8 ff ff ff ff       	mov    $0xffffffff,%eax
  402821:	e9 1e 03 00 00       	jmpq   402b44 <submitr+0x746>
  402826:	89 ee                	mov    %ebp,%esi
  402828:	48 8d 7c 24 30       	lea    0x30(%rsp),%rdi
  40282d:	e8 ee f8 ff ff       	callq  402120 <rio_readinitb>
  402832:	ba 00 20 00 00       	mov    $0x2000,%edx
  402837:	48 8d b4 24 40 20 00 	lea    0x2040(%rsp),%rsi
  40283e:	00 
  40283f:	48 8d 7c 24 30       	lea    0x30(%rsp),%rdi
  402844:	e8 fe f9 ff ff       	callq  402247 <rio_readlineb>
  402849:	48 85 c0             	test   %rax,%rax
  40284c:	7f 7d                	jg     4028cb <submitr+0x4cd>
  40284e:	48 b8 45 72 72 6f 72 	movabs $0x43203a726f727245,%rax
  402855:	3a 20 43 
  402858:	48 89 03             	mov    %rax,(%rbx)
  40285b:	48 b8 6c 69 65 6e 74 	movabs $0x6e7520746e65696c,%rax
  402862:	20 75 6e 
  402865:	48 89 43 08          	mov    %rax,0x8(%rbx)
  402869:	48 b8 61 62 6c 65 20 	movabs $0x206f7420656c6261,%rax
  402870:	74 6f 20 
  402873:	48 89 43 10          	mov    %rax,0x10(%rbx)
  402877:	48 b8 72 65 61 64 20 	movabs $0x7269662064616572,%rax
  40287e:	66 69 72 
  402881:	48 89 43 18          	mov    %rax,0x18(%rbx)
  402885:	48 b8 73 74 20 68 65 	movabs $0x6564616568207473,%rax
  40288c:	61 64 65 
  40288f:	48 89 43 20          	mov    %rax,0x20(%rbx)
  402893:	48 b8 72 20 66 72 6f 	movabs $0x72206d6f72662072,%rax
  40289a:	6d 20 72 
  40289d:	48 89 43 28          	mov    %rax,0x28(%rbx)
  4028a1:	48 b8 65 73 75 6c 74 	movabs $0x657320746c757365,%rax
  4028a8:	20 73 65 
  4028ab:	48 89 43 30          	mov    %rax,0x30(%rbx)
  4028af:	c7 43 38 72 76 65 72 	movl   $0x72657672,0x38(%rbx)
  4028b6:	c6 43 3c 00          	movb   $0x0,0x3c(%rbx)
  4028ba:	89 ef                	mov    %ebp,%edi
  4028bc:	e8 6f e4 ff ff       	callq  400d30 <close@plt>
  4028c1:	b8 ff ff ff ff       	mov    $0xffffffff,%eax
  4028c6:	e9 79 02 00 00       	jmpq   402b44 <submitr+0x746>
  4028cb:	4c 8d 84 24 40 80 00 	lea    0x8040(%rsp),%r8
  4028d2:	00 
  4028d3:	48 8d 4c 24 1c       	lea    0x1c(%rsp),%rcx
  4028d8:	48 8d 94 24 40 60 00 	lea    0x6040(%rsp),%rdx
  4028df:	00 
  4028e0:	be bf 37 40 00       	mov    $0x4037bf,%esi
  4028e5:	48 8d bc 24 40 20 00 	lea    0x2040(%rsp),%rdi
  4028ec:	00 
  4028ed:	b8 00 00 00 00       	mov    $0x0,%eax
  4028f2:	e8 e9 e4 ff ff       	callq  400de0 <__isoc99_sscanf@plt>
  4028f7:	e9 95 00 00 00       	jmpq   402991 <submitr+0x593>
  4028fc:	ba 00 20 00 00       	mov    $0x2000,%edx
  402901:	48 8d b4 24 40 20 00 	lea    0x2040(%rsp),%rsi
  402908:	00 
  402909:	48 8d 7c 24 30       	lea    0x30(%rsp),%rdi
  40290e:	e8 34 f9 ff ff       	callq  402247 <rio_readlineb>
  402913:	48 85 c0             	test   %rax,%rax
  402916:	7f 79                	jg     402991 <submitr+0x593>
  402918:	48 b8 45 72 72 6f 72 	movabs $0x43203a726f727245,%rax
  40291f:	3a 20 43 
  402922:	48 89 03             	mov    %rax,(%rbx)
  402925:	48 b8 6c 69 65 6e 74 	movabs $0x6e7520746e65696c,%rax
  40292c:	20 75 6e 
  40292f:	48 89 43 08          	mov    %rax,0x8(%rbx)
  402933:	48 b8 61 62 6c 65 20 	movabs $0x206f7420656c6261,%rax
  40293a:	74 6f 20 
  40293d:	48 89 43 10          	mov    %rax,0x10(%rbx)
  402941:	48 b8 72 65 61 64 20 	movabs $0x6165682064616572,%rax
  402948:	68 65 61 
  40294b:	48 89 43 18          	mov    %rax,0x18(%rbx)
  40294f:	48 b8 64 65 72 73 20 	movabs $0x6f72662073726564,%rax
  402956:	66 72 6f 
  402959:	48 89 43 20          	mov    %rax,0x20(%rbx)
  40295d:	48 b8 6d 20 74 68 65 	movabs $0x657220656874206d,%rax
  402964:	20 72 65 
  402967:	48 89 43 28          	mov    %rax,0x28(%rbx)
  40296b:	48 b8 73 75 6c 74 20 	movabs $0x72657320746c7573,%rax
  402972:	73 65 72 
  402975:	48 89 43 30          	mov    %rax,0x30(%rbx)
  402979:	c7 43 38 76 65 72 00 	movl   $0x726576,0x38(%rbx)
  402980:	89 ef                	mov    %ebp,%edi
  402982:	e8 a9 e3 ff ff       	callq  400d30 <close@plt>
  402987:	b8 ff ff ff ff       	mov    $0xffffffff,%eax
  40298c:	e9 b3 01 00 00       	jmpq   402b44 <submitr+0x746>
  402991:	0f b6 94 24 40 20 00 	movzbl 0x2040(%rsp),%edx
  402998:	00 
  402999:	b8 0d 00 00 00       	mov    $0xd,%eax
  40299e:	29 d0                	sub    %edx,%eax
  4029a0:	75 1b                	jne    4029bd <submitr+0x5bf>
  4029a2:	0f b6 94 24 41 20 00 	movzbl 0x2041(%rsp),%edx
  4029a9:	00 
  4029aa:	b8 0a 00 00 00       	mov    $0xa,%eax
  4029af:	29 d0                	sub    %edx,%eax
  4029b1:	75 0a                	jne    4029bd <submitr+0x5bf>
  4029b3:	0f b6 84 24 42 20 00 	movzbl 0x2042(%rsp),%eax
  4029ba:	00 
  4029bb:	f7 d8                	neg    %eax
  4029bd:	85 c0                	test   %eax,%eax
  4029bf:	0f 85 37 ff ff ff    	jne    4028fc <submitr+0x4fe>
  4029c5:	ba 00 20 00 00       	mov    $0x2000,%edx
  4029ca:	48 8d b4 24 40 20 00 	lea    0x2040(%rsp),%rsi
  4029d1:	00 
  4029d2:	48 8d 7c 24 30       	lea    0x30(%rsp),%rdi
  4029d7:	e8 6b f8 ff ff       	callq  402247 <rio_readlineb>
  4029dc:	48 85 c0             	test   %rax,%rax
  4029df:	0f 8f 83 00 00 00    	jg     402a68 <submitr+0x66a>
  4029e5:	48 b8 45 72 72 6f 72 	movabs $0x43203a726f727245,%rax
  4029ec:	3a 20 43 
  4029ef:	48 89 03             	mov    %rax,(%rbx)
  4029f2:	48 b8 6c 69 65 6e 74 	movabs $0x6e7520746e65696c,%rax
  4029f9:	20 75 6e 
  4029fc:	48 89 43 08          	mov    %rax,0x8(%rbx)
  402a00:	48 b8 61 62 6c 65 20 	movabs $0x206f7420656c6261,%rax
  402a07:	74 6f 20 
  402a0a:	48 89 43 10          	mov    %rax,0x10(%rbx)
  402a0e:	48 b8 72 65 61 64 20 	movabs $0x6174732064616572,%rax
  402a15:	73 74 61 
  402a18:	48 89 43 18          	mov    %rax,0x18(%rbx)
  402a1c:	48 b8 74 75 73 20 6d 	movabs $0x7373656d20737574,%rax
  402a23:	65 73 73 
  402a26:	48 89 43 20          	mov    %rax,0x20(%rbx)
  402a2a:	48 b8 61 67 65 20 66 	movabs $0x6d6f726620656761,%rax
  402a31:	72 6f 6d 
  402a34:	48 89 43 28          	mov    %rax,0x28(%rbx)
  402a38:	48 b8 20 72 65 73 75 	movabs $0x20746c7573657220,%rax
  402a3f:	6c 74 20 
  402a42:	48 89 43 30          	mov    %rax,0x30(%rbx)
  402a46:	c7 43 38 73 65 72 76 	movl   $0x76726573,0x38(%rbx)
  402a4d:	66 c7 43 3c 65 72    	movw   $0x7265,0x3c(%rbx)
  402a53:	c6 43 3e 00          	movb   $0x0,0x3e(%rbx)
  402a57:	89 ef                	mov    %ebp,%edi
  402a59:	e8 d2 e2 ff ff       	callq  400d30 <close@plt>
  402a5e:	b8 ff ff ff ff       	mov    $0xffffffff,%eax
  402a63:	e9 dc 00 00 00       	jmpq   402b44 <submitr+0x746>
  402a68:	44 8b 44 24 1c       	mov    0x1c(%rsp),%r8d
  402a6d:	41 81 f8 c8 00 00 00 	cmp    $0xc8,%r8d
  402a74:	74 37                	je     402aad <submitr+0x6af>
  402a76:	4c 8d 8c 24 40 80 00 	lea    0x8040(%rsp),%r9
  402a7d:	00 
  402a7e:	b9 88 37 40 00       	mov    $0x403788,%ecx
  402a83:	48 c7 c2 ff ff ff ff 	mov    $0xffffffffffffffff,%rdx
  402a8a:	be 01 00 00 00       	mov    $0x1,%esi
  402a8f:	48 89 df             	mov    %rbx,%rdi
  402a92:	b8 00 00 00 00       	mov    $0x0,%eax
  402a97:	e8 e4 e3 ff ff       	callq  400e80 <__sprintf_chk@plt>
  402a9c:	89 ef                	mov    %ebp,%edi
  402a9e:	e8 8d e2 ff ff       	callq  400d30 <close@plt>
  402aa3:	b8 ff ff ff ff       	mov    $0xffffffff,%eax
  402aa8:	e9 97 00 00 00       	jmpq   402b44 <submitr+0x746>
  402aad:	48 8d b4 24 40 20 00 	lea    0x2040(%rsp),%rsi
  402ab4:	00 
  402ab5:	48 89 df             	mov    %rbx,%rdi
  402ab8:	e8 03 e2 ff ff       	callq  400cc0 <strcpy@plt>
  402abd:	89 ef                	mov    %ebp,%edi
  402abf:	e8 6c e2 ff ff       	callq  400d30 <close@plt>
  402ac4:	0f b6 03             	movzbl (%rbx),%eax
  402ac7:	ba 4f 00 00 00       	mov    $0x4f,%edx
  402acc:	29 c2                	sub    %eax,%edx
  402ace:	75 22                	jne    402af2 <submitr+0x6f4>
  402ad0:	0f b6 4b 01          	movzbl 0x1(%rbx),%ecx
  402ad4:	b8 4b 00 00 00       	mov    $0x4b,%eax
  402ad9:	29 c8                	sub    %ecx,%eax
  402adb:	75 17                	jne    402af4 <submitr+0x6f6>
  402add:	0f b6 4b 02          	movzbl 0x2(%rbx),%ecx
  402ae1:	b8 0a 00 00 00       	mov    $0xa,%eax
  402ae6:	29 c8                	sub    %ecx,%eax
  402ae8:	75 0a                	jne    402af4 <submitr+0x6f6>
  402aea:	0f b6 43 03          	movzbl 0x3(%rbx),%eax
  402aee:	f7 d8                	neg    %eax
  402af0:	eb 02                	jmp    402af4 <submitr+0x6f6>
  402af2:	89 d0                	mov    %edx,%eax
  402af4:	85 c0                	test   %eax,%eax
  402af6:	74 40                	je     402b38 <submitr+0x73a>
  402af8:	bf d0 37 40 00       	mov    $0x4037d0,%edi
  402afd:	b9 05 00 00 00       	mov    $0x5,%ecx
  402b02:	48 89 de             	mov    %rbx,%rsi
  402b05:	f3 a6                	repz cmpsb %es:(%rdi),%ds:(%rsi)
  402b07:	0f 97 c0             	seta   %al
  402b0a:	0f 92 c1             	setb   %cl
  402b0d:	29 c8                	sub    %ecx,%eax
  402b0f:	0f be c0             	movsbl %al,%eax
  402b12:	85 c0                	test   %eax,%eax
  402b14:	74 2e                	je     402b44 <submitr+0x746>
  402b16:	85 d2                	test   %edx,%edx
  402b18:	75 13                	jne    402b2d <submitr+0x72f>
  402b1a:	0f b6 43 01          	movzbl 0x1(%rbx),%eax
  402b1e:	ba 4b 00 00 00       	mov    $0x4b,%edx
  402b23:	29 c2                	sub    %eax,%edx
  402b25:	75 06                	jne    402b2d <submitr+0x72f>
  402b27:	0f b6 53 02          	movzbl 0x2(%rbx),%edx
  402b2b:	f7 da                	neg    %edx
  402b2d:	85 d2                	test   %edx,%edx
  402b2f:	75 0e                	jne    402b3f <submitr+0x741>
  402b31:	b8 00 00 00 00       	mov    $0x0,%eax
  402b36:	eb 0c                	jmp    402b44 <submitr+0x746>
  402b38:	b8 00 00 00 00       	mov    $0x0,%eax
  402b3d:	eb 05                	jmp    402b44 <submitr+0x746>
  402b3f:	b8 ff ff ff ff       	mov    $0xffffffff,%eax
  402b44:	48 8b 9c 24 48 a0 00 	mov    0xa048(%rsp),%rbx
  402b4b:	00 
  402b4c:	64 48 33 1c 25 28 00 	xor    %fs:0x28,%rbx
  402b53:	00 00 
  402b55:	74 05                	je     402b5c <submitr+0x75e>
  402b57:	e8 94 e1 ff ff       	callq  400cf0 <__stack_chk_fail@plt>
  402b5c:	48 81 c4 58 a0 00 00 	add    $0xa058,%rsp
  402b63:	5b                   	pop    %rbx
  402b64:	5d                   	pop    %rbp
  402b65:	41 5c                	pop    %r12
  402b67:	41 5d                	pop    %r13
  402b69:	41 5e                	pop    %r14
  402b6b:	41 5f                	pop    %r15
  402b6d:	c3                   	retq   

0000000000402b6e <init_timeout>:
  402b6e:	85 ff                	test   %edi,%edi
  402b70:	74 23                	je     402b95 <init_timeout+0x27>
  402b72:	53                   	push   %rbx
  402b73:	89 fb                	mov    %edi,%ebx
  402b75:	85 ff                	test   %edi,%edi
  402b77:	79 05                	jns    402b7e <init_timeout+0x10>
  402b79:	bb 00 00 00 00       	mov    $0x0,%ebx
  402b7e:	be 32 21 40 00       	mov    $0x402132,%esi
  402b83:	bf 0e 00 00 00       	mov    $0xe,%edi
  402b88:	e8 d3 e1 ff ff       	callq  400d60 <signal@plt>
  402b8d:	89 df                	mov    %ebx,%edi
  402b8f:	e8 8c e1 ff ff       	callq  400d20 <alarm@plt>
  402b94:	5b                   	pop    %rbx
  402b95:	f3 c3                	repz retq 

0000000000402b97 <init_driver>:
  402b97:	55                   	push   %rbp
  402b98:	53                   	push   %rbx
  402b99:	48 83 ec 28          	sub    $0x28,%rsp
  402b9d:	48 89 fd             	mov    %rdi,%rbp
  402ba0:	64 48 8b 04 25 28 00 	mov    %fs:0x28,%rax
  402ba7:	00 00 
  402ba9:	48 89 44 24 18       	mov    %rax,0x18(%rsp)
  402bae:	31 c0                	xor    %eax,%eax
  402bb0:	be 01 00 00 00       	mov    $0x1,%esi
  402bb5:	bf 0d 00 00 00       	mov    $0xd,%edi
  402bba:	e8 a1 e1 ff ff       	callq  400d60 <signal@plt>
  402bbf:	be 01 00 00 00       	mov    $0x1,%esi
  402bc4:	bf 1d 00 00 00       	mov    $0x1d,%edi
  402bc9:	e8 92 e1 ff ff       	callq  400d60 <signal@plt>
  402bce:	be 01 00 00 00       	mov    $0x1,%esi
  402bd3:	bf 1d 00 00 00       	mov    $0x1d,%edi
  402bd8:	e8 83 e1 ff ff       	callq  400d60 <signal@plt>
  402bdd:	ba 00 00 00 00       	mov    $0x0,%edx
  402be2:	be 01 00 00 00       	mov    $0x1,%esi
  402be7:	bf 02 00 00 00       	mov    $0x2,%edi
  402bec:	e8 9f e2 ff ff       	callq  400e90 <socket@plt>
  402bf1:	85 c0                	test   %eax,%eax
  402bf3:	79 4f                	jns    402c44 <init_driver+0xad>
  402bf5:	48 b8 45 72 72 6f 72 	movabs $0x43203a726f727245,%rax
  402bfc:	3a 20 43 
  402bff:	48 89 45 00          	mov    %rax,0x0(%rbp)
  402c03:	48 b8 6c 69 65 6e 74 	movabs $0x6e7520746e65696c,%rax
  402c0a:	20 75 6e 
  402c0d:	48 89 45 08          	mov    %rax,0x8(%rbp)
  402c11:	48 b8 61 62 6c 65 20 	movabs $0x206f7420656c6261,%rax
  402c18:	74 6f 20 
  402c1b:	48 89 45 10          	mov    %rax,0x10(%rbp)
  402c1f:	48 b8 63 72 65 61 74 	movabs $0x7320657461657263,%rax
  402c26:	65 20 73 
  402c29:	48 89 45 18          	mov    %rax,0x18(%rbp)
  402c2d:	c7 45 20 6f 63 6b 65 	movl   $0x656b636f,0x20(%rbp)
  402c34:	66 c7 45 24 74 00    	movw   $0x74,0x24(%rbp)
  402c3a:	b8 ff ff ff ff       	mov    $0xffffffff,%eax
  402c3f:	e9 2a 01 00 00       	jmpq   402d6e <init_driver+0x1d7>
  402c44:	89 c3                	mov    %eax,%ebx
  402c46:	bf d5 37 40 00       	mov    $0x4037d5,%edi
  402c4b:	e8 20 e1 ff ff       	callq  400d70 <gethostbyname@plt>
  402c50:	48 85 c0             	test   %rax,%rax
  402c53:	75 68                	jne    402cbd <init_driver+0x126>
  402c55:	48 b8 45 72 72 6f 72 	movabs $0x44203a726f727245,%rax
  402c5c:	3a 20 44 
  402c5f:	48 89 45 00          	mov    %rax,0x0(%rbp)
  402c63:	48 b8 4e 53 20 69 73 	movabs $0x6e7520736920534e,%rax
  402c6a:	20 75 6e 
  402c6d:	48 89 45 08          	mov    %rax,0x8(%rbp)
  402c71:	48 b8 61 62 6c 65 20 	movabs $0x206f7420656c6261,%rax
  402c78:	74 6f 20 
  402c7b:	48 89 45 10          	mov    %rax,0x10(%rbp)
  402c7f:	48 b8 72 65 73 6f 6c 	movabs $0x2065766c6f736572,%rax
  402c86:	76 65 20 
  402c89:	48 89 45 18          	mov    %rax,0x18(%rbp)
  402c8d:	48 b8 73 65 72 76 65 	movabs $0x6120726576726573,%rax
  402c94:	72 20 61 
  402c97:	48 89 45 20          	mov    %rax,0x20(%rbp)
  402c9b:	c7 45 28 64 64 72 65 	movl   $0x65726464,0x28(%rbp)
  402ca2:	66 c7 45 2c 73 73    	movw   $0x7373,0x2c(%rbp)
  402ca8:	c6 45 2e 00          	movb   $0x0,0x2e(%rbp)
  402cac:	89 df                	mov    %ebx,%edi
  402cae:	e8 7d e0 ff ff       	callq  400d30 <close@plt>
  402cb3:	b8 ff ff ff ff       	mov    $0xffffffff,%eax
  402cb8:	e9 b1 00 00 00       	jmpq   402d6e <init_driver+0x1d7>
  402cbd:	48 c7 04 24 00 00 00 	movq   $0x0,(%rsp)
  402cc4:	00 
  402cc5:	48 c7 44 24 08 00 00 	movq   $0x0,0x8(%rsp)
  402ccc:	00 00 
  402cce:	66 c7 04 24 02 00    	movw   $0x2,(%rsp)
  402cd4:	48 63 50 14          	movslq 0x14(%rax),%rdx
  402cd8:	48 8b 40 18          	mov    0x18(%rax),%rax
  402cdc:	48 8b 30             	mov    (%rax),%rsi
  402cdf:	48 8d 7c 24 04       	lea    0x4(%rsp),%rdi
  402ce4:	b9 0c 00 00 00       	mov    $0xc,%ecx
  402ce9:	e8 92 e0 ff ff       	callq  400d80 <__memmove_chk@plt>
  402cee:	66 c7 44 24 02 3c 9a 	movw   $0x9a3c,0x2(%rsp)
  402cf5:	ba 10 00 00 00       	mov    $0x10,%edx
  402cfa:	48 89 e6             	mov    %rsp,%rsi
  402cfd:	89 df                	mov    %ebx,%edi
  402cff:	e8 5c e1 ff ff       	callq  400e60 <connect@plt>
  402d04:	85 c0                	test   %eax,%eax
  402d06:	79 50                	jns    402d58 <init_driver+0x1c1>
  402d08:	48 b8 45 72 72 6f 72 	movabs $0x55203a726f727245,%rax
  402d0f:	3a 20 55 
  402d12:	48 89 45 00          	mov    %rax,0x0(%rbp)
  402d16:	48 b8 6e 61 62 6c 65 	movabs $0x6f7420656c62616e,%rax
  402d1d:	20 74 6f 
  402d20:	48 89 45 08          	mov    %rax,0x8(%rbp)
  402d24:	48 b8 20 63 6f 6e 6e 	movabs $0x7463656e6e6f6320,%rax
  402d2b:	65 63 74 
  402d2e:	48 89 45 10          	mov    %rax,0x10(%rbp)
  402d32:	48 b8 20 74 6f 20 73 	movabs $0x76726573206f7420,%rax
  402d39:	65 72 76 
  402d3c:	48 89 45 18          	mov    %rax,0x18(%rbp)
  402d40:	66 c7 45 20 65 72    	movw   $0x7265,0x20(%rbp)
  402d46:	c6 45 22 00          	movb   $0x0,0x22(%rbp)
  402d4a:	89 df                	mov    %ebx,%edi
  402d4c:	e8 df df ff ff       	callq  400d30 <close@plt>
  402d51:	b8 ff ff ff ff       	mov    $0xffffffff,%eax
  402d56:	eb 16                	jmp    402d6e <init_driver+0x1d7>
  402d58:	89 df                	mov    %ebx,%edi
  402d5a:	e8 d1 df ff ff       	callq  400d30 <close@plt>
  402d5f:	66 c7 45 00 4f 4b    	movw   $0x4b4f,0x0(%rbp)
  402d65:	c6 45 02 00          	movb   $0x0,0x2(%rbp)
  402d69:	b8 00 00 00 00       	mov    $0x0,%eax
  402d6e:	48 8b 4c 24 18       	mov    0x18(%rsp),%rcx
  402d73:	64 48 33 0c 25 28 00 	xor    %fs:0x28,%rcx
  402d7a:	00 00 
  402d7c:	74 05                	je     402d83 <init_driver+0x1ec>
  402d7e:	e8 6d df ff ff       	callq  400cf0 <__stack_chk_fail@plt>
  402d83:	48 83 c4 28          	add    $0x28,%rsp
  402d87:	5b                   	pop    %rbx
  402d88:	5d                   	pop    %rbp
  402d89:	c3                   	retq   

0000000000402d8a <driver_post>:
  402d8a:	53                   	push   %rbx
  402d8b:	4c 89 cb             	mov    %r9,%rbx
  402d8e:	45 85 c0             	test   %r8d,%r8d
  402d91:	74 27                	je     402dba <driver_post+0x30>
  402d93:	48 89 ca             	mov    %rcx,%rdx
  402d96:	be e3 37 40 00       	mov    $0x4037e3,%esi
  402d9b:	bf 01 00 00 00       	mov    $0x1,%edi
  402da0:	b8 00 00 00 00       	mov    $0x0,%eax
  402da5:	e8 56 e0 ff ff       	callq  400e00 <__printf_chk@plt>
  402daa:	66 c7 03 4f 4b       	movw   $0x4b4f,(%rbx)
  402daf:	c6 43 02 00          	movb   $0x0,0x2(%rbx)
  402db3:	b8 00 00 00 00       	mov    $0x0,%eax
  402db8:	eb 3f                	jmp    402df9 <driver_post+0x6f>
  402dba:	48 85 ff             	test   %rdi,%rdi
  402dbd:	74 2c                	je     402deb <driver_post+0x61>
  402dbf:	80 3f 00             	cmpb   $0x0,(%rdi)
  402dc2:	74 27                	je     402deb <driver_post+0x61>
  402dc4:	48 83 ec 08          	sub    $0x8,%rsp
  402dc8:	41 51                	push   %r9
  402dca:	49 89 c9             	mov    %rcx,%r9
  402dcd:	49 89 d0             	mov    %rdx,%r8
  402dd0:	48 89 f9             	mov    %rdi,%rcx
  402dd3:	48 89 f2             	mov    %rsi,%rdx
  402dd6:	be 9a 3c 00 00       	mov    $0x3c9a,%esi
  402ddb:	bf d5 37 40 00       	mov    $0x4037d5,%edi
  402de0:	e8 19 f6 ff ff       	callq  4023fe <submitr>
  402de5:	48 83 c4 10          	add    $0x10,%rsp
  402de9:	eb 0e                	jmp    402df9 <driver_post+0x6f>
  402deb:	66 c7 03 4f 4b       	movw   $0x4b4f,(%rbx)
  402df0:	c6 43 02 00          	movb   $0x0,0x2(%rbx)
  402df4:	b8 00 00 00 00       	mov    $0x0,%eax
  402df9:	5b                   	pop    %rbx
  402dfa:	c3                   	retq   

0000000000402dfb <check>:
  402dfb:	89 f8                	mov    %edi,%eax
  402dfd:	c1 e8 1c             	shr    $0x1c,%eax
  402e00:	85 c0                	test   %eax,%eax
  402e02:	74 1d                	je     402e21 <check+0x26>
  402e04:	b9 00 00 00 00       	mov    $0x0,%ecx
  402e09:	eb 0b                	jmp    402e16 <check+0x1b>
  402e0b:	89 f8                	mov    %edi,%eax
  402e0d:	d3 e8                	shr    %cl,%eax
  402e0f:	3c 0a                	cmp    $0xa,%al
  402e11:	74 14                	je     402e27 <check+0x2c>
  402e13:	83 c1 08             	add    $0x8,%ecx
  402e16:	83 f9 1f             	cmp    $0x1f,%ecx
  402e19:	7e f0                	jle    402e0b <check+0x10>
  402e1b:	b8 01 00 00 00       	mov    $0x1,%eax
  402e20:	c3                   	retq   
  402e21:	b8 00 00 00 00       	mov    $0x0,%eax
  402e26:	c3                   	retq   
  402e27:	b8 00 00 00 00       	mov    $0x0,%eax
  402e2c:	c3                   	retq   

0000000000402e2d <gencookie>:
  402e2d:	53                   	push   %rbx
  402e2e:	83 c7 01             	add    $0x1,%edi
  402e31:	e8 6a de ff ff       	callq  400ca0 <srandom@plt>
  402e36:	e8 85 df ff ff       	callq  400dc0 <random@plt>
  402e3b:	89 c3                	mov    %eax,%ebx
  402e3d:	89 c7                	mov    %eax,%edi
  402e3f:	e8 b7 ff ff ff       	callq  402dfb <check>
  402e44:	85 c0                	test   %eax,%eax
  402e46:	74 ee                	je     402e36 <gencookie+0x9>
  402e48:	89 d8                	mov    %ebx,%eax
  402e4a:	5b                   	pop    %rbx
  402e4b:	c3                   	retq   
  402e4c:	0f 1f 40 00          	nopl   0x0(%rax)

0000000000402e50 <__libc_csu_init>:
  402e50:	41 57                	push   %r15
  402e52:	41 56                	push   %r14
  402e54:	41 89 ff             	mov    %edi,%r15d
  402e57:	41 55                	push   %r13
  402e59:	41 54                	push   %r12
  402e5b:	4c 8d 25 ae 1f 20 00 	lea    0x201fae(%rip),%r12        # 604e10 <__frame_dummy_init_array_entry>
  402e62:	55                   	push   %rbp
  402e63:	48 8d 2d ae 1f 20 00 	lea    0x201fae(%rip),%rbp        # 604e18 <__do_global_dtors_aux_fini_array_entry>
  402e6a:	53                   	push   %rbx
  402e6b:	49 89 f6             	mov    %rsi,%r14
  402e6e:	49 89 d5             	mov    %rdx,%r13
  402e71:	4c 29 e5             	sub    %r12,%rbp
  402e74:	48 83 ec 08          	sub    $0x8,%rsp
  402e78:	48 c1 fd 03          	sar    $0x3,%rbp
  402e7c:	e8 c7 dd ff ff       	callq  400c48 <_init>
  402e81:	48 85 ed             	test   %rbp,%rbp
  402e84:	74 20                	je     402ea6 <__libc_csu_init+0x56>
  402e86:	31 db                	xor    %ebx,%ebx
  402e88:	0f 1f 84 00 00 00 00 	nopl   0x0(%rax,%rax,1)
  402e8f:	00 
  402e90:	4c 89 ea             	mov    %r13,%rdx
  402e93:	4c 89 f6             	mov    %r14,%rsi
  402e96:	44 89 ff             	mov    %r15d,%edi
  402e99:	41 ff 14 dc          	callq  *(%r12,%rbx,8)
  402e9d:	48 83 c3 01          	add    $0x1,%rbx
  402ea1:	48 39 eb             	cmp    %rbp,%rbx
  402ea4:	75 ea                	jne    402e90 <__libc_csu_init+0x40>
  402ea6:	48 83 c4 08          	add    $0x8,%rsp
  402eaa:	5b                   	pop    %rbx
  402eab:	5d                   	pop    %rbp
  402eac:	41 5c                	pop    %r12
  402eae:	41 5d                	pop    %r13
  402eb0:	41 5e                	pop    %r14
  402eb2:	41 5f                	pop    %r15
  402eb4:	c3                   	retq   
  402eb5:	90                   	nop
  402eb6:	66 2e 0f 1f 84 00 00 	nopw   %cs:0x0(%rax,%rax,1)
  402ebd:	00 00 00 

0000000000402ec0 <__libc_csu_fini>:
  402ec0:	f3 c3                	repz retq 

Disassembly of section .fini:

0000000000402ec4 <_fini>:
  402ec4:	48 83 ec 08          	sub    $0x8,%rsp
  402ec8:	48 83 c4 08          	add    $0x8,%rsp
  402ecc:	c3                   	retq   
