
rtarget:     file format elf64-x86-64


Disassembly of section .init:

0000000000400c48 <_init>:
  400c48:	48 83 ec 08          	sub    $0x8,%rsp
  400c4c:	48 8b 05 a5 43 20 00 	mov    0x2043a5(%rip),%rax        # 604ff8 <__gmon_start__>
  400c53:	48 85 c0             	test   %rax,%rax
  400c56:	74 05                	je     400c5d <_init+0x15>
  400c58:	e8 43 02 00 00       	callq  400ea0 <__gmon_start__@plt>
  400c5d:	48 83 c4 08          	add    $0x8,%rsp
  400c61:	c3                   	retq   

Disassembly of section .plt:

0000000000400c70 <.plt>:
  400c70:	ff 35 92 43 20 00    	pushq  0x204392(%rip)        # 605008 <_GLOBAL_OFFSET_TABLE_+0x8>
  400c76:	ff 25 94 43 20 00    	jmpq   *0x204394(%rip)        # 605010 <_GLOBAL_OFFSET_TABLE_+0x10>
  400c7c:	0f 1f 40 00          	nopl   0x0(%rax)

0000000000400c80 <strcasecmp@plt>:
  400c80:	ff 25 92 43 20 00    	jmpq   *0x204392(%rip)        # 605018 <strcasecmp@GLIBC_2.2.5>
  400c86:	68 00 00 00 00       	pushq  $0x0
  400c8b:	e9 e0 ff ff ff       	jmpq   400c70 <.plt>

0000000000400c90 <__errno_location@plt>:
  400c90:	ff 25 8a 43 20 00    	jmpq   *0x20438a(%rip)        # 605020 <__errno_location@GLIBC_2.2.5>
  400c96:	68 01 00 00 00       	pushq  $0x1
  400c9b:	e9 d0 ff ff ff       	jmpq   400c70 <.plt>

0000000000400ca0 <srandom@plt>:
  400ca0:	ff 25 82 43 20 00    	jmpq   *0x204382(%rip)        # 605028 <srandom@GLIBC_2.2.5>
  400ca6:	68 02 00 00 00       	pushq  $0x2
  400cab:	e9 c0 ff ff ff       	jmpq   400c70 <.plt>

0000000000400cb0 <strncmp@plt>:
  400cb0:	ff 25 7a 43 20 00    	jmpq   *0x20437a(%rip)        # 605030 <strncmp@GLIBC_2.2.5>
  400cb6:	68 03 00 00 00       	pushq  $0x3
  400cbb:	e9 b0 ff ff ff       	jmpq   400c70 <.plt>

0000000000400cc0 <strcpy@plt>:
  400cc0:	ff 25 72 43 20 00    	jmpq   *0x204372(%rip)        # 605038 <strcpy@GLIBC_2.2.5>
  400cc6:	68 04 00 00 00       	pushq  $0x4
  400ccb:	e9 a0 ff ff ff       	jmpq   400c70 <.plt>

0000000000400cd0 <puts@plt>:
  400cd0:	ff 25 6a 43 20 00    	jmpq   *0x20436a(%rip)        # 605040 <puts@GLIBC_2.2.5>
  400cd6:	68 05 00 00 00       	pushq  $0x5
  400cdb:	e9 90 ff ff ff       	jmpq   400c70 <.plt>

0000000000400ce0 <write@plt>:
  400ce0:	ff 25 62 43 20 00    	jmpq   *0x204362(%rip)        # 605048 <write@GLIBC_2.2.5>
  400ce6:	68 06 00 00 00       	pushq  $0x6
  400ceb:	e9 80 ff ff ff       	jmpq   400c70 <.plt>

0000000000400cf0 <__stack_chk_fail@plt>:
  400cf0:	ff 25 5a 43 20 00    	jmpq   *0x20435a(%rip)        # 605050 <__stack_chk_fail@GLIBC_2.4>
  400cf6:	68 07 00 00 00       	pushq  $0x7
  400cfb:	e9 70 ff ff ff       	jmpq   400c70 <.plt>

0000000000400d00 <mmap@plt>:
  400d00:	ff 25 52 43 20 00    	jmpq   *0x204352(%rip)        # 605058 <mmap@GLIBC_2.2.5>
  400d06:	68 08 00 00 00       	pushq  $0x8
  400d0b:	e9 60 ff ff ff       	jmpq   400c70 <.plt>

0000000000400d10 <memset@plt>:
  400d10:	ff 25 4a 43 20 00    	jmpq   *0x20434a(%rip)        # 605060 <memset@GLIBC_2.2.5>
  400d16:	68 09 00 00 00       	pushq  $0x9
  400d1b:	e9 50 ff ff ff       	jmpq   400c70 <.plt>

0000000000400d20 <alarm@plt>:
  400d20:	ff 25 42 43 20 00    	jmpq   *0x204342(%rip)        # 605068 <alarm@GLIBC_2.2.5>
  400d26:	68 0a 00 00 00       	pushq  $0xa
  400d2b:	e9 40 ff ff ff       	jmpq   400c70 <.plt>

0000000000400d30 <close@plt>:
  400d30:	ff 25 3a 43 20 00    	jmpq   *0x20433a(%rip)        # 605070 <close@GLIBC_2.2.5>
  400d36:	68 0b 00 00 00       	pushq  $0xb
  400d3b:	e9 30 ff ff ff       	jmpq   400c70 <.plt>

0000000000400d40 <read@plt>:
  400d40:	ff 25 32 43 20 00    	jmpq   *0x204332(%rip)        # 605078 <read@GLIBC_2.2.5>
  400d46:	68 0c 00 00 00       	pushq  $0xc
  400d4b:	e9 20 ff ff ff       	jmpq   400c70 <.plt>

0000000000400d50 <__libc_start_main@plt>:
  400d50:	ff 25 2a 43 20 00    	jmpq   *0x20432a(%rip)        # 605080 <__libc_start_main@GLIBC_2.2.5>
  400d56:	68 0d 00 00 00       	pushq  $0xd
  400d5b:	e9 10 ff ff ff       	jmpq   400c70 <.plt>

0000000000400d60 <signal@plt>:
  400d60:	ff 25 22 43 20 00    	jmpq   *0x204322(%rip)        # 605088 <signal@GLIBC_2.2.5>
  400d66:	68 0e 00 00 00       	pushq  $0xe
  400d6b:	e9 00 ff ff ff       	jmpq   400c70 <.plt>

0000000000400d70 <gethostbyname@plt>:
  400d70:	ff 25 1a 43 20 00    	jmpq   *0x20431a(%rip)        # 605090 <gethostbyname@GLIBC_2.2.5>
  400d76:	68 0f 00 00 00       	pushq  $0xf
  400d7b:	e9 f0 fe ff ff       	jmpq   400c70 <.plt>

0000000000400d80 <__memmove_chk@plt>:
  400d80:	ff 25 12 43 20 00    	jmpq   *0x204312(%rip)        # 605098 <__memmove_chk@GLIBC_2.3.4>
  400d86:	68 10 00 00 00       	pushq  $0x10
  400d8b:	e9 e0 fe ff ff       	jmpq   400c70 <.plt>

0000000000400d90 <strtol@plt>:
  400d90:	ff 25 0a 43 20 00    	jmpq   *0x20430a(%rip)        # 6050a0 <strtol@GLIBC_2.2.5>
  400d96:	68 11 00 00 00       	pushq  $0x11
  400d9b:	e9 d0 fe ff ff       	jmpq   400c70 <.plt>

0000000000400da0 <memcpy@plt>:
  400da0:	ff 25 02 43 20 00    	jmpq   *0x204302(%rip)        # 6050a8 <memcpy@GLIBC_2.14>
  400da6:	68 12 00 00 00       	pushq  $0x12
  400dab:	e9 c0 fe ff ff       	jmpq   400c70 <.plt>

0000000000400db0 <time@plt>:
  400db0:	ff 25 fa 42 20 00    	jmpq   *0x2042fa(%rip)        # 6050b0 <time@GLIBC_2.2.5>
  400db6:	68 13 00 00 00       	pushq  $0x13
  400dbb:	e9 b0 fe ff ff       	jmpq   400c70 <.plt>

0000000000400dc0 <random@plt>:
  400dc0:	ff 25 f2 42 20 00    	jmpq   *0x2042f2(%rip)        # 6050b8 <random@GLIBC_2.2.5>
  400dc6:	68 14 00 00 00       	pushq  $0x14
  400dcb:	e9 a0 fe ff ff       	jmpq   400c70 <.plt>

0000000000400dd0 <_IO_getc@plt>:
  400dd0:	ff 25 ea 42 20 00    	jmpq   *0x2042ea(%rip)        # 6050c0 <_IO_getc@GLIBC_2.2.5>
  400dd6:	68 15 00 00 00       	pushq  $0x15
  400ddb:	e9 90 fe ff ff       	jmpq   400c70 <.plt>

0000000000400de0 <__isoc99_sscanf@plt>:
  400de0:	ff 25 e2 42 20 00    	jmpq   *0x2042e2(%rip)        # 6050c8 <__isoc99_sscanf@GLIBC_2.7>
  400de6:	68 16 00 00 00       	pushq  $0x16
  400deb:	e9 80 fe ff ff       	jmpq   400c70 <.plt>

0000000000400df0 <munmap@plt>:
  400df0:	ff 25 da 42 20 00    	jmpq   *0x2042da(%rip)        # 6050d0 <munmap@GLIBC_2.2.5>
  400df6:	68 17 00 00 00       	pushq  $0x17
  400dfb:	e9 70 fe ff ff       	jmpq   400c70 <.plt>

0000000000400e00 <__printf_chk@plt>:
  400e00:	ff 25 d2 42 20 00    	jmpq   *0x2042d2(%rip)        # 6050d8 <__printf_chk@GLIBC_2.3.4>
  400e06:	68 18 00 00 00       	pushq  $0x18
  400e0b:	e9 60 fe ff ff       	jmpq   400c70 <.plt>

0000000000400e10 <fopen@plt>:
  400e10:	ff 25 ca 42 20 00    	jmpq   *0x2042ca(%rip)        # 6050e0 <fopen@GLIBC_2.2.5>
  400e16:	68 19 00 00 00       	pushq  $0x19
  400e1b:	e9 50 fe ff ff       	jmpq   400c70 <.plt>

0000000000400e20 <getopt@plt>:
  400e20:	ff 25 c2 42 20 00    	jmpq   *0x2042c2(%rip)        # 6050e8 <getopt@GLIBC_2.2.5>
  400e26:	68 1a 00 00 00       	pushq  $0x1a
  400e2b:	e9 40 fe ff ff       	jmpq   400c70 <.plt>

0000000000400e30 <strtoul@plt>:
  400e30:	ff 25 ba 42 20 00    	jmpq   *0x2042ba(%rip)        # 6050f0 <strtoul@GLIBC_2.2.5>
  400e36:	68 1b 00 00 00       	pushq  $0x1b
  400e3b:	e9 30 fe ff ff       	jmpq   400c70 <.plt>

0000000000400e40 <gethostname@plt>:
  400e40:	ff 25 b2 42 20 00    	jmpq   *0x2042b2(%rip)        # 6050f8 <gethostname@GLIBC_2.2.5>
  400e46:	68 1c 00 00 00       	pushq  $0x1c
  400e4b:	e9 20 fe ff ff       	jmpq   400c70 <.plt>

0000000000400e50 <exit@plt>:
  400e50:	ff 25 aa 42 20 00    	jmpq   *0x2042aa(%rip)        # 605100 <exit@GLIBC_2.2.5>
  400e56:	68 1d 00 00 00       	pushq  $0x1d
  400e5b:	e9 10 fe ff ff       	jmpq   400c70 <.plt>

0000000000400e60 <connect@plt>:
  400e60:	ff 25 a2 42 20 00    	jmpq   *0x2042a2(%rip)        # 605108 <connect@GLIBC_2.2.5>
  400e66:	68 1e 00 00 00       	pushq  $0x1e
  400e6b:	e9 00 fe ff ff       	jmpq   400c70 <.plt>

0000000000400e70 <__fprintf_chk@plt>:
  400e70:	ff 25 9a 42 20 00    	jmpq   *0x20429a(%rip)        # 605110 <__fprintf_chk@GLIBC_2.3.4>
  400e76:	68 1f 00 00 00       	pushq  $0x1f
  400e7b:	e9 f0 fd ff ff       	jmpq   400c70 <.plt>

0000000000400e80 <__sprintf_chk@plt>:
  400e80:	ff 25 92 42 20 00    	jmpq   *0x204292(%rip)        # 605118 <__sprintf_chk@GLIBC_2.3.4>
  400e86:	68 20 00 00 00       	pushq  $0x20
  400e8b:	e9 e0 fd ff ff       	jmpq   400c70 <.plt>

0000000000400e90 <socket@plt>:
  400e90:	ff 25 8a 42 20 00    	jmpq   *0x20428a(%rip)        # 605120 <socket@GLIBC_2.2.5>
  400e96:	68 21 00 00 00       	pushq  $0x21
  400e9b:	e9 d0 fd ff ff       	jmpq   400c70 <.plt>

Disassembly of section .plt.got:

0000000000400ea0 <__gmon_start__@plt>:
  400ea0:	ff 25 52 41 20 00    	jmpq   *0x204152(%rip)        # 604ff8 <__gmon_start__>
  400ea6:	66 90                	xchg   %ax,%ax

Disassembly of section .text:

0000000000400eb0 <_start>:
  400eb0:	31 ed                	xor    %ebp,%ebp
  400eb2:	49 89 d1             	mov    %rdx,%r9
  400eb5:	5e                   	pop    %rsi
  400eb6:	48 89 e2             	mov    %rsp,%rdx
  400eb9:	48 83 e4 f0          	and    $0xfffffffffffffff0,%rsp
  400ebd:	50                   	push   %rax
  400ebe:	54                   	push   %rsp
  400ebf:	49 c7 c0 e0 2f 40 00 	mov    $0x402fe0,%r8
  400ec6:	48 c7 c1 70 2f 40 00 	mov    $0x402f70,%rcx
  400ecd:	48 c7 c7 b5 11 40 00 	mov    $0x4011b5,%rdi
  400ed4:	e8 77 fe ff ff       	callq  400d50 <__libc_start_main@plt>
  400ed9:	f4                   	hlt    
  400eda:	66 0f 1f 44 00 00    	nopw   0x0(%rax,%rax,1)

0000000000400ee0 <deregister_tm_clones>:
  400ee0:	b8 b7 54 60 00       	mov    $0x6054b7,%eax
  400ee5:	55                   	push   %rbp
  400ee6:	48 2d b0 54 60 00    	sub    $0x6054b0,%rax
  400eec:	48 83 f8 0e          	cmp    $0xe,%rax
  400ef0:	48 89 e5             	mov    %rsp,%rbp
  400ef3:	76 1b                	jbe    400f10 <deregister_tm_clones+0x30>
  400ef5:	b8 00 00 00 00       	mov    $0x0,%eax
  400efa:	48 85 c0             	test   %rax,%rax
  400efd:	74 11                	je     400f10 <deregister_tm_clones+0x30>
  400eff:	5d                   	pop    %rbp
  400f00:	bf b0 54 60 00       	mov    $0x6054b0,%edi
  400f05:	ff e0                	jmpq   *%rax
  400f07:	66 0f 1f 84 00 00 00 	nopw   0x0(%rax,%rax,1)
  400f0e:	00 00 
  400f10:	5d                   	pop    %rbp
  400f11:	c3                   	retq   
  400f12:	0f 1f 40 00          	nopl   0x0(%rax)
  400f16:	66 2e 0f 1f 84 00 00 	nopw   %cs:0x0(%rax,%rax,1)
  400f1d:	00 00 00 

0000000000400f20 <register_tm_clones>:
  400f20:	be b0 54 60 00       	mov    $0x6054b0,%esi
  400f25:	55                   	push   %rbp
  400f26:	48 81 ee b0 54 60 00 	sub    $0x6054b0,%rsi
  400f2d:	48 c1 fe 03          	sar    $0x3,%rsi
  400f31:	48 89 e5             	mov    %rsp,%rbp
  400f34:	48 89 f0             	mov    %rsi,%rax
  400f37:	48 c1 e8 3f          	shr    $0x3f,%rax
  400f3b:	48 01 c6             	add    %rax,%rsi
  400f3e:	48 d1 fe             	sar    %rsi
  400f41:	74 15                	je     400f58 <register_tm_clones+0x38>
  400f43:	b8 00 00 00 00       	mov    $0x0,%eax
  400f48:	48 85 c0             	test   %rax,%rax
  400f4b:	74 0b                	je     400f58 <register_tm_clones+0x38>
  400f4d:	5d                   	pop    %rbp
  400f4e:	bf b0 54 60 00       	mov    $0x6054b0,%edi
  400f53:	ff e0                	jmpq   *%rax
  400f55:	0f 1f 00             	nopl   (%rax)
  400f58:	5d                   	pop    %rbp
  400f59:	c3                   	retq   
  400f5a:	66 0f 1f 44 00 00    	nopw   0x0(%rax,%rax,1)

0000000000400f60 <__do_global_dtors_aux>:
  400f60:	80 3d 81 45 20 00 00 	cmpb   $0x0,0x204581(%rip)        # 6054e8 <completed.7585>
  400f67:	75 11                	jne    400f7a <__do_global_dtors_aux+0x1a>
  400f69:	55                   	push   %rbp
  400f6a:	48 89 e5             	mov    %rsp,%rbp
  400f6d:	e8 6e ff ff ff       	callq  400ee0 <deregister_tm_clones>
  400f72:	5d                   	pop    %rbp
  400f73:	c6 05 6e 45 20 00 01 	movb   $0x1,0x20456e(%rip)        # 6054e8 <completed.7585>
  400f7a:	f3 c3                	repz retq 
  400f7c:	0f 1f 40 00          	nopl   0x0(%rax)

0000000000400f80 <frame_dummy>:
  400f80:	bf 20 4e 60 00       	mov    $0x604e20,%edi
  400f85:	48 83 3f 00          	cmpq   $0x0,(%rdi)
  400f89:	75 05                	jne    400f90 <frame_dummy+0x10>
  400f8b:	eb 93                	jmp    400f20 <register_tm_clones>
  400f8d:	0f 1f 00             	nopl   (%rax)
  400f90:	b8 00 00 00 00       	mov    $0x0,%eax
  400f95:	48 85 c0             	test   %rax,%rax
  400f98:	74 f1                	je     400f8b <frame_dummy+0xb>
  400f9a:	55                   	push   %rbp
  400f9b:	48 89 e5             	mov    %rsp,%rbp
  400f9e:	ff d0                	callq  *%rax
  400fa0:	5d                   	pop    %rbp
  400fa1:	e9 7a ff ff ff       	jmpq   400f20 <register_tm_clones>

0000000000400fa6 <usage>:
  400fa6:	48 83 ec 08          	sub    $0x8,%rsp
  400faa:	48 89 fa             	mov    %rdi,%rdx
  400fad:	83 3d 74 45 20 00 00 	cmpl   $0x0,0x204574(%rip)        # 605528 <is_checker>
  400fb4:	74 3e                	je     400ff4 <usage+0x4e>
  400fb6:	be f8 2f 40 00       	mov    $0x402ff8,%esi
  400fbb:	bf 01 00 00 00       	mov    $0x1,%edi
  400fc0:	b8 00 00 00 00       	mov    $0x0,%eax
  400fc5:	e8 36 fe ff ff       	callq  400e00 <__printf_chk@plt>
  400fca:	bf 30 30 40 00       	mov    $0x403030,%edi
  400fcf:	e8 fc fc ff ff       	callq  400cd0 <puts@plt>
  400fd4:	bf a8 31 40 00       	mov    $0x4031a8,%edi
  400fd9:	e8 f2 fc ff ff       	callq  400cd0 <puts@plt>
  400fde:	bf 58 30 40 00       	mov    $0x403058,%edi
  400fe3:	e8 e8 fc ff ff       	callq  400cd0 <puts@plt>
  400fe8:	bf c2 31 40 00       	mov    $0x4031c2,%edi
  400fed:	e8 de fc ff ff       	callq  400cd0 <puts@plt>
  400ff2:	eb 32                	jmp    401026 <usage+0x80>
  400ff4:	be de 31 40 00       	mov    $0x4031de,%esi
  400ff9:	bf 01 00 00 00       	mov    $0x1,%edi
  400ffe:	b8 00 00 00 00       	mov    $0x0,%eax
  401003:	e8 f8 fd ff ff       	callq  400e00 <__printf_chk@plt>
  401008:	bf 80 30 40 00       	mov    $0x403080,%edi
  40100d:	e8 be fc ff ff       	callq  400cd0 <puts@plt>
  401012:	bf a8 30 40 00       	mov    $0x4030a8,%edi
  401017:	e8 b4 fc ff ff       	callq  400cd0 <puts@plt>
  40101c:	bf fc 31 40 00       	mov    $0x4031fc,%edi
  401021:	e8 aa fc ff ff       	callq  400cd0 <puts@plt>
  401026:	bf 00 00 00 00       	mov    $0x0,%edi
  40102b:	e8 20 fe ff ff       	callq  400e50 <exit@plt>

0000000000401030 <initialize_target>:
  401030:	55                   	push   %rbp
  401031:	53                   	push   %rbx
  401032:	48 81 ec 18 21 00 00 	sub    $0x2118,%rsp
  401039:	89 f5                	mov    %esi,%ebp
  40103b:	64 48 8b 04 25 28 00 	mov    %fs:0x28,%rax
  401042:	00 00 
  401044:	48 89 84 24 08 21 00 	mov    %rax,0x2108(%rsp)
  40104b:	00 
  40104c:	31 c0                	xor    %eax,%eax
  40104e:	89 3d c4 44 20 00    	mov    %edi,0x2044c4(%rip)        # 605518 <check_level>
  401054:	8b 3d 0e 41 20 00    	mov    0x20410e(%rip),%edi        # 605168 <target_id>
  40105a:	e8 f0 1e 00 00       	callq  402f4f <gencookie>
  40105f:	89 05 bf 44 20 00    	mov    %eax,0x2044bf(%rip)        # 605524 <cookie>
  401065:	89 c7                	mov    %eax,%edi
  401067:	e8 e3 1e 00 00       	callq  402f4f <gencookie>
  40106c:	89 05 ae 44 20 00    	mov    %eax,0x2044ae(%rip)        # 605520 <authkey>
  401072:	8b 05 f0 40 20 00    	mov    0x2040f0(%rip),%eax        # 605168 <target_id>
  401078:	8d 78 01             	lea    0x1(%rax),%edi
  40107b:	e8 20 fc ff ff       	callq  400ca0 <srandom@plt>
  401080:	e8 3b fd ff ff       	callq  400dc0 <random@plt>
  401085:	89 c7                	mov    %eax,%edi
  401087:	e8 03 03 00 00       	callq  40138f <scramble>
  40108c:	89 c3                	mov    %eax,%ebx
  40108e:	85 ed                	test   %ebp,%ebp
  401090:	74 18                	je     4010aa <initialize_target+0x7a>
  401092:	bf 00 00 00 00       	mov    $0x0,%edi
  401097:	e8 14 fd ff ff       	callq  400db0 <time@plt>
  40109c:	89 c7                	mov    %eax,%edi
  40109e:	e8 fd fb ff ff       	callq  400ca0 <srandom@plt>
  4010a3:	e8 18 fd ff ff       	callq  400dc0 <random@plt>
  4010a8:	eb 05                	jmp    4010af <initialize_target+0x7f>
  4010aa:	b8 00 00 00 00       	mov    $0x0,%eax
  4010af:	01 c3                	add    %eax,%ebx
  4010b1:	0f b7 db             	movzwl %bx,%ebx
  4010b4:	8d 04 dd 00 01 00 00 	lea    0x100(,%rbx,8),%eax
  4010bb:	89 c0                	mov    %eax,%eax
  4010bd:	48 89 05 dc 43 20 00 	mov    %rax,0x2043dc(%rip)        # 6054a0 <buf_offset>
  4010c4:	c6 05 7d 50 20 00 72 	movb   $0x72,0x20507d(%rip)        # 606148 <target_prefix>
  4010cb:	83 3d d6 43 20 00 00 	cmpl   $0x0,0x2043d6(%rip)        # 6054a8 <notify>
  4010d2:	0f 84 bb 00 00 00    	je     401193 <initialize_target+0x163>
  4010d8:	83 3d 49 44 20 00 00 	cmpl   $0x0,0x204449(%rip)        # 605528 <is_checker>
  4010df:	0f 85 ae 00 00 00    	jne    401193 <initialize_target+0x163>
  4010e5:	be 00 01 00 00       	mov    $0x100,%esi
  4010ea:	48 89 e7             	mov    %rsp,%rdi
  4010ed:	e8 4e fd ff ff       	callq  400e40 <gethostname@plt>
  4010f2:	85 c0                	test   %eax,%eax
  4010f4:	74 25                	je     40111b <initialize_target+0xeb>
  4010f6:	bf d8 30 40 00       	mov    $0x4030d8,%edi
  4010fb:	e8 d0 fb ff ff       	callq  400cd0 <puts@plt>
  401100:	bf 08 00 00 00       	mov    $0x8,%edi
  401105:	e8 46 fd ff ff       	callq  400e50 <exit@plt>
  40110a:	48 89 e6             	mov    %rsp,%rsi
  40110d:	e8 6e fb ff ff       	callq  400c80 <strcasecmp@plt>
  401112:	85 c0                	test   %eax,%eax
  401114:	74 21                	je     401137 <initialize_target+0x107>
  401116:	83 c3 01             	add    $0x1,%ebx
  401119:	eb 05                	jmp    401120 <initialize_target+0xf0>
  40111b:	bb 00 00 00 00       	mov    $0x0,%ebx
  401120:	48 63 c3             	movslq %ebx,%rax
  401123:	48 8b 3c c5 80 51 60 	mov    0x605180(,%rax,8),%rdi
  40112a:	00 
  40112b:	48 85 ff             	test   %rdi,%rdi
  40112e:	75 da                	jne    40110a <initialize_target+0xda>
  401130:	b8 00 00 00 00       	mov    $0x0,%eax
  401135:	eb 05                	jmp    40113c <initialize_target+0x10c>
  401137:	b8 01 00 00 00       	mov    $0x1,%eax
  40113c:	85 c0                	test   %eax,%eax
  40113e:	75 1c                	jne    40115c <initialize_target+0x12c>
  401140:	48 89 e2             	mov    %rsp,%rdx
  401143:	be 10 31 40 00       	mov    $0x403110,%esi
  401148:	bf 01 00 00 00       	mov    $0x1,%edi
  40114d:	e8 ae fc ff ff       	callq  400e00 <__printf_chk@plt>
  401152:	bf 08 00 00 00       	mov    $0x8,%edi
  401157:	e8 f4 fc ff ff       	callq  400e50 <exit@plt>
  40115c:	48 8d bc 24 00 01 00 	lea    0x100(%rsp),%rdi
  401163:	00 
  401164:	e8 50 1b 00 00       	callq  402cb9 <init_driver>
  401169:	85 c0                	test   %eax,%eax
  40116b:	79 26                	jns    401193 <initialize_target+0x163>
  40116d:	48 8d 94 24 00 01 00 	lea    0x100(%rsp),%rdx
  401174:	00 
  401175:	be 50 31 40 00       	mov    $0x403150,%esi
  40117a:	bf 01 00 00 00       	mov    $0x1,%edi
  40117f:	b8 00 00 00 00       	mov    $0x0,%eax
  401184:	e8 77 fc ff ff       	callq  400e00 <__printf_chk@plt>
  401189:	bf 08 00 00 00       	mov    $0x8,%edi
  40118e:	e8 bd fc ff ff       	callq  400e50 <exit@plt>
  401193:	48 8b 84 24 08 21 00 	mov    0x2108(%rsp),%rax
  40119a:	00 
  40119b:	64 48 33 04 25 28 00 	xor    %fs:0x28,%rax
  4011a2:	00 00 
  4011a4:	74 05                	je     4011ab <initialize_target+0x17b>
  4011a6:	e8 45 fb ff ff       	callq  400cf0 <__stack_chk_fail@plt>
  4011ab:	48 81 c4 18 21 00 00 	add    $0x2118,%rsp
  4011b2:	5b                   	pop    %rbx
  4011b3:	5d                   	pop    %rbp
  4011b4:	c3                   	retq   

00000000004011b5 <main>:
  4011b5:	41 56                	push   %r14
  4011b7:	41 55                	push   %r13
  4011b9:	41 54                	push   %r12
  4011bb:	55                   	push   %rbp
  4011bc:	53                   	push   %rbx
  4011bd:	41 89 fc             	mov    %edi,%r12d
  4011c0:	48 89 f3             	mov    %rsi,%rbx
  4011c3:	be f4 1f 40 00       	mov    $0x401ff4,%esi
  4011c8:	bf 0b 00 00 00       	mov    $0xb,%edi
  4011cd:	e8 8e fb ff ff       	callq  400d60 <signal@plt>
  4011d2:	be a6 1f 40 00       	mov    $0x401fa6,%esi
  4011d7:	bf 07 00 00 00       	mov    $0x7,%edi
  4011dc:	e8 7f fb ff ff       	callq  400d60 <signal@plt>
  4011e1:	be 42 20 40 00       	mov    $0x402042,%esi
  4011e6:	bf 04 00 00 00       	mov    $0x4,%edi
  4011eb:	e8 70 fb ff ff       	callq  400d60 <signal@plt>
  4011f0:	83 3d 31 43 20 00 00 	cmpl   $0x0,0x204331(%rip)        # 605528 <is_checker>
  4011f7:	74 20                	je     401219 <main+0x64>
  4011f9:	be 90 20 40 00       	mov    $0x402090,%esi
  4011fe:	bf 0e 00 00 00       	mov    $0xe,%edi
  401203:	e8 58 fb ff ff       	callq  400d60 <signal@plt>
  401208:	bf 05 00 00 00       	mov    $0x5,%edi
  40120d:	e8 0e fb ff ff       	callq  400d20 <alarm@plt>
  401212:	bd 1a 32 40 00       	mov    $0x40321a,%ebp
  401217:	eb 05                	jmp    40121e <main+0x69>
  401219:	bd 15 32 40 00       	mov    $0x403215,%ebp
  40121e:	48 8b 05 9b 42 20 00 	mov    0x20429b(%rip),%rax        # 6054c0 <stdin@@GLIBC_2.2.5>
  401225:	48 89 05 e4 42 20 00 	mov    %rax,0x2042e4(%rip)        # 605510 <infile>
  40122c:	41 bd 00 00 00 00    	mov    $0x0,%r13d
  401232:	41 be 00 00 00 00    	mov    $0x0,%r14d
  401238:	e9 c6 00 00 00       	jmpq   401303 <main+0x14e>
  40123d:	83 e8 61             	sub    $0x61,%eax
  401240:	3c 10                	cmp    $0x10,%al
  401242:	0f 87 9c 00 00 00    	ja     4012e4 <main+0x12f>
  401248:	0f b6 c0             	movzbl %al,%eax
  40124b:	ff 24 c5 60 32 40 00 	jmpq   *0x403260(,%rax,8)
  401252:	48 8b 3b             	mov    (%rbx),%rdi
  401255:	e8 4c fd ff ff       	callq  400fa6 <usage>
  40125a:	be 2d 34 40 00       	mov    $0x40342d,%esi
  40125f:	48 8b 3d 62 42 20 00 	mov    0x204262(%rip),%rdi        # 6054c8 <optarg@@GLIBC_2.2.5>
  401266:	e8 a5 fb ff ff       	callq  400e10 <fopen@plt>
  40126b:	48 89 05 9e 42 20 00 	mov    %rax,0x20429e(%rip)        # 605510 <infile>
  401272:	48 85 c0             	test   %rax,%rax
  401275:	0f 85 88 00 00 00    	jne    401303 <main+0x14e>
  40127b:	48 8b 0d 46 42 20 00 	mov    0x204246(%rip),%rcx        # 6054c8 <optarg@@GLIBC_2.2.5>
  401282:	ba 22 32 40 00       	mov    $0x403222,%edx
  401287:	be 01 00 00 00       	mov    $0x1,%esi
  40128c:	48 8b 3d 4d 42 20 00 	mov    0x20424d(%rip),%rdi        # 6054e0 <stderr@@GLIBC_2.2.5>
  401293:	e8 d8 fb ff ff       	callq  400e70 <__fprintf_chk@plt>
  401298:	b8 01 00 00 00       	mov    $0x1,%eax
  40129d:	e9 e4 00 00 00       	jmpq   401386 <main+0x1d1>
  4012a2:	ba 10 00 00 00       	mov    $0x10,%edx
  4012a7:	be 00 00 00 00       	mov    $0x0,%esi
  4012ac:	48 8b 3d 15 42 20 00 	mov    0x204215(%rip),%rdi        # 6054c8 <optarg@@GLIBC_2.2.5>
  4012b3:	e8 78 fb ff ff       	callq  400e30 <strtoul@plt>
  4012b8:	41 89 c6             	mov    %eax,%r14d
  4012bb:	eb 46                	jmp    401303 <main+0x14e>
  4012bd:	ba 0a 00 00 00       	mov    $0xa,%edx
  4012c2:	be 00 00 00 00       	mov    $0x0,%esi
  4012c7:	48 8b 3d fa 41 20 00 	mov    0x2041fa(%rip),%rdi        # 6054c8 <optarg@@GLIBC_2.2.5>
  4012ce:	e8 bd fa ff ff       	callq  400d90 <strtol@plt>
  4012d3:	41 89 c5             	mov    %eax,%r13d
  4012d6:	eb 2b                	jmp    401303 <main+0x14e>
  4012d8:	c7 05 c6 41 20 00 00 	movl   $0x0,0x2041c6(%rip)        # 6054a8 <notify>
  4012df:	00 00 00 
  4012e2:	eb 1f                	jmp    401303 <main+0x14e>
  4012e4:	0f be d2             	movsbl %dl,%edx
  4012e7:	be 3f 32 40 00       	mov    $0x40323f,%esi
  4012ec:	bf 01 00 00 00       	mov    $0x1,%edi
  4012f1:	b8 00 00 00 00       	mov    $0x0,%eax
  4012f6:	e8 05 fb ff ff       	callq  400e00 <__printf_chk@plt>
  4012fb:	48 8b 3b             	mov    (%rbx),%rdi
  4012fe:	e8 a3 fc ff ff       	callq  400fa6 <usage>
  401303:	48 89 ea             	mov    %rbp,%rdx
  401306:	48 89 de             	mov    %rbx,%rsi
  401309:	44 89 e7             	mov    %r12d,%edi
  40130c:	e8 0f fb ff ff       	callq  400e20 <getopt@plt>
  401311:	89 c2                	mov    %eax,%edx
  401313:	3c ff                	cmp    $0xff,%al
  401315:	0f 85 22 ff ff ff    	jne    40123d <main+0x88>
  40131b:	be 01 00 00 00       	mov    $0x1,%esi
  401320:	44 89 ef             	mov    %r13d,%edi
  401323:	e8 08 fd ff ff       	callq  401030 <initialize_target>
  401328:	83 3d f9 41 20 00 00 	cmpl   $0x0,0x2041f9(%rip)        # 605528 <is_checker>
  40132f:	74 2a                	je     40135b <main+0x1a6>
  401331:	44 3b 35 e8 41 20 00 	cmp    0x2041e8(%rip),%r14d        # 605520 <authkey>
  401338:	74 21                	je     40135b <main+0x1a6>
  40133a:	44 89 f2             	mov    %r14d,%edx
  40133d:	be 78 31 40 00       	mov    $0x403178,%esi
  401342:	bf 01 00 00 00       	mov    $0x1,%edi
  401347:	b8 00 00 00 00       	mov    $0x0,%eax
  40134c:	e8 af fa ff ff       	callq  400e00 <__printf_chk@plt>
  401351:	b8 00 00 00 00       	mov    $0x0,%eax
  401356:	e8 cd 08 00 00       	callq  401c28 <check_fail>
  40135b:	8b 15 c3 41 20 00    	mov    0x2041c3(%rip),%edx        # 605524 <cookie>
  401361:	be 52 32 40 00       	mov    $0x403252,%esi
  401366:	bf 01 00 00 00       	mov    $0x1,%edi
  40136b:	b8 00 00 00 00       	mov    $0x0,%eax
  401370:	e8 8b fa ff ff       	callq  400e00 <__printf_chk@plt>
  401375:	48 8b 3d 24 41 20 00 	mov    0x204124(%rip),%rdi        # 6054a0 <buf_offset>
  40137c:	e8 62 0d 00 00       	callq  4020e3 <launch>
  401381:	b8 00 00 00 00       	mov    $0x0,%eax
  401386:	5b                   	pop    %rbx
  401387:	5d                   	pop    %rbp
  401388:	41 5c                	pop    %r12
  40138a:	41 5d                	pop    %r13
  40138c:	41 5e                	pop    %r14
  40138e:	c3                   	retq   

000000000040138f <scramble>:
  40138f:	48 83 ec 38          	sub    $0x38,%rsp
  401393:	64 48 8b 04 25 28 00 	mov    %fs:0x28,%rax
  40139a:	00 00 
  40139c:	48 89 44 24 28       	mov    %rax,0x28(%rsp)
  4013a1:	31 c0                	xor    %eax,%eax
  4013a3:	eb 10                	jmp    4013b5 <scramble+0x26>
  4013a5:	69 d0 ea b1 00 00    	imul   $0xb1ea,%eax,%edx
  4013ab:	01 fa                	add    %edi,%edx
  4013ad:	89 c1                	mov    %eax,%ecx
  4013af:	89 14 8c             	mov    %edx,(%rsp,%rcx,4)
  4013b2:	83 c0 01             	add    $0x1,%eax
  4013b5:	83 f8 09             	cmp    $0x9,%eax
  4013b8:	76 eb                	jbe    4013a5 <scramble+0x16>
  4013ba:	8b 44 24 0c          	mov    0xc(%rsp),%eax
  4013be:	69 c0 54 f8 00 00    	imul   $0xf854,%eax,%eax
  4013c4:	89 44 24 0c          	mov    %eax,0xc(%rsp)
  4013c8:	8b 04 24             	mov    (%rsp),%eax
  4013cb:	69 c0 31 72 00 00    	imul   $0x7231,%eax,%eax
  4013d1:	89 04 24             	mov    %eax,(%rsp)
  4013d4:	8b 44 24 1c          	mov    0x1c(%rsp),%eax
  4013d8:	69 c0 68 7e 00 00    	imul   $0x7e68,%eax,%eax
  4013de:	89 44 24 1c          	mov    %eax,0x1c(%rsp)
  4013e2:	8b 44 24 18          	mov    0x18(%rsp),%eax
  4013e6:	69 c0 b7 ff 00 00    	imul   $0xffb7,%eax,%eax
  4013ec:	89 44 24 18          	mov    %eax,0x18(%rsp)
  4013f0:	8b 44 24 1c          	mov    0x1c(%rsp),%eax
  4013f4:	69 c0 58 bf 00 00    	imul   $0xbf58,%eax,%eax
  4013fa:	89 44 24 1c          	mov    %eax,0x1c(%rsp)
  4013fe:	8b 44 24 08          	mov    0x8(%rsp),%eax
  401402:	69 c0 42 35 00 00    	imul   $0x3542,%eax,%eax
  401408:	89 44 24 08          	mov    %eax,0x8(%rsp)
  40140c:	8b 44 24 18          	mov    0x18(%rsp),%eax
  401410:	69 c0 e7 19 00 00    	imul   $0x19e7,%eax,%eax
  401416:	89 44 24 18          	mov    %eax,0x18(%rsp)
  40141a:	8b 44 24 0c          	mov    0xc(%rsp),%eax
  40141e:	69 c0 58 56 00 00    	imul   $0x5658,%eax,%eax
  401424:	89 44 24 0c          	mov    %eax,0xc(%rsp)
  401428:	8b 44 24 20          	mov    0x20(%rsp),%eax
  40142c:	69 c0 ea 77 00 00    	imul   $0x77ea,%eax,%eax
  401432:	89 44 24 20          	mov    %eax,0x20(%rsp)
  401436:	8b 04 24             	mov    (%rsp),%eax
  401439:	69 c0 5d 79 00 00    	imul   $0x795d,%eax,%eax
  40143f:	89 04 24             	mov    %eax,(%rsp)
  401442:	8b 44 24 24          	mov    0x24(%rsp),%eax
  401446:	69 c0 91 4f 00 00    	imul   $0x4f91,%eax,%eax
  40144c:	89 44 24 24          	mov    %eax,0x24(%rsp)
  401450:	8b 44 24 0c          	mov    0xc(%rsp),%eax
  401454:	69 c0 4a 33 00 00    	imul   $0x334a,%eax,%eax
  40145a:	89 44 24 0c          	mov    %eax,0xc(%rsp)
  40145e:	8b 44 24 04          	mov    0x4(%rsp),%eax
  401462:	69 c0 c7 ed 00 00    	imul   $0xedc7,%eax,%eax
  401468:	89 44 24 04          	mov    %eax,0x4(%rsp)
  40146c:	8b 44 24 18          	mov    0x18(%rsp),%eax
  401470:	69 c0 bc 48 00 00    	imul   $0x48bc,%eax,%eax
  401476:	89 44 24 18          	mov    %eax,0x18(%rsp)
  40147a:	8b 44 24 14          	mov    0x14(%rsp),%eax
  40147e:	69 c0 98 84 00 00    	imul   $0x8498,%eax,%eax
  401484:	89 44 24 14          	mov    %eax,0x14(%rsp)
  401488:	8b 44 24 18          	mov    0x18(%rsp),%eax
  40148c:	69 c0 42 7f 00 00    	imul   $0x7f42,%eax,%eax
  401492:	89 44 24 18          	mov    %eax,0x18(%rsp)
  401496:	8b 04 24             	mov    (%rsp),%eax
  401499:	69 c0 a1 ee 00 00    	imul   $0xeea1,%eax,%eax
  40149f:	89 04 24             	mov    %eax,(%rsp)
  4014a2:	8b 44 24 14          	mov    0x14(%rsp),%eax
  4014a6:	69 c0 c3 47 00 00    	imul   $0x47c3,%eax,%eax
  4014ac:	89 44 24 14          	mov    %eax,0x14(%rsp)
  4014b0:	8b 44 24 20          	mov    0x20(%rsp),%eax
  4014b4:	69 c0 4d 23 00 00    	imul   $0x234d,%eax,%eax
  4014ba:	89 44 24 20          	mov    %eax,0x20(%rsp)
  4014be:	8b 44 24 20          	mov    0x20(%rsp),%eax
  4014c2:	69 c0 3f ef 00 00    	imul   $0xef3f,%eax,%eax
  4014c8:	89 44 24 20          	mov    %eax,0x20(%rsp)
  4014cc:	8b 44 24 14          	mov    0x14(%rsp),%eax
  4014d0:	69 c0 71 74 00 00    	imul   $0x7471,%eax,%eax
  4014d6:	89 44 24 14          	mov    %eax,0x14(%rsp)
  4014da:	8b 44 24 24          	mov    0x24(%rsp),%eax
  4014de:	69 c0 1e 44 00 00    	imul   $0x441e,%eax,%eax
  4014e4:	89 44 24 24          	mov    %eax,0x24(%rsp)
  4014e8:	8b 44 24 08          	mov    0x8(%rsp),%eax
  4014ec:	69 c0 eb 03 00 00    	imul   $0x3eb,%eax,%eax
  4014f2:	89 44 24 08          	mov    %eax,0x8(%rsp)
  4014f6:	8b 44 24 20          	mov    0x20(%rsp),%eax
  4014fa:	69 c0 34 18 00 00    	imul   $0x1834,%eax,%eax
  401500:	89 44 24 20          	mov    %eax,0x20(%rsp)
  401504:	8b 44 24 14          	mov    0x14(%rsp),%eax
  401508:	69 c0 70 e8 00 00    	imul   $0xe870,%eax,%eax
  40150e:	89 44 24 14          	mov    %eax,0x14(%rsp)
  401512:	8b 44 24 1c          	mov    0x1c(%rsp),%eax
  401516:	69 c0 8c ad 00 00    	imul   $0xad8c,%eax,%eax
  40151c:	89 44 24 1c          	mov    %eax,0x1c(%rsp)
  401520:	8b 44 24 20          	mov    0x20(%rsp),%eax
  401524:	69 c0 5a 93 00 00    	imul   $0x935a,%eax,%eax
  40152a:	89 44 24 20          	mov    %eax,0x20(%rsp)
  40152e:	8b 44 24 24          	mov    0x24(%rsp),%eax
  401532:	69 c0 33 5e 00 00    	imul   $0x5e33,%eax,%eax
  401538:	89 44 24 24          	mov    %eax,0x24(%rsp)
  40153c:	8b 44 24 24          	mov    0x24(%rsp),%eax
  401540:	69 c0 89 4f 00 00    	imul   $0x4f89,%eax,%eax
  401546:	89 44 24 24          	mov    %eax,0x24(%rsp)
  40154a:	8b 44 24 10          	mov    0x10(%rsp),%eax
  40154e:	69 c0 79 4e 00 00    	imul   $0x4e79,%eax,%eax
  401554:	89 44 24 10          	mov    %eax,0x10(%rsp)
  401558:	8b 44 24 10          	mov    0x10(%rsp),%eax
  40155c:	69 c0 3f f5 00 00    	imul   $0xf53f,%eax,%eax
  401562:	89 44 24 10          	mov    %eax,0x10(%rsp)
  401566:	8b 44 24 18          	mov    0x18(%rsp),%eax
  40156a:	69 c0 0e 51 00 00    	imul   $0x510e,%eax,%eax
  401570:	89 44 24 18          	mov    %eax,0x18(%rsp)
  401574:	8b 44 24 1c          	mov    0x1c(%rsp),%eax
  401578:	69 c0 30 bf 00 00    	imul   $0xbf30,%eax,%eax
  40157e:	89 44 24 1c          	mov    %eax,0x1c(%rsp)
  401582:	8b 44 24 14          	mov    0x14(%rsp),%eax
  401586:	69 c0 e9 50 00 00    	imul   $0x50e9,%eax,%eax
  40158c:	89 44 24 14          	mov    %eax,0x14(%rsp)
  401590:	8b 44 24 20          	mov    0x20(%rsp),%eax
  401594:	69 c0 4b e0 00 00    	imul   $0xe04b,%eax,%eax
  40159a:	89 44 24 20          	mov    %eax,0x20(%rsp)
  40159e:	8b 44 24 14          	mov    0x14(%rsp),%eax
  4015a2:	69 c0 23 c5 00 00    	imul   $0xc523,%eax,%eax
  4015a8:	89 44 24 14          	mov    %eax,0x14(%rsp)
  4015ac:	8b 44 24 1c          	mov    0x1c(%rsp),%eax
  4015b0:	69 c0 aa 64 00 00    	imul   $0x64aa,%eax,%eax
  4015b6:	89 44 24 1c          	mov    %eax,0x1c(%rsp)
  4015ba:	8b 44 24 24          	mov    0x24(%rsp),%eax
  4015be:	69 c0 16 e3 00 00    	imul   $0xe316,%eax,%eax
  4015c4:	89 44 24 24          	mov    %eax,0x24(%rsp)
  4015c8:	8b 44 24 20          	mov    0x20(%rsp),%eax
  4015cc:	69 c0 b7 a3 00 00    	imul   $0xa3b7,%eax,%eax
  4015d2:	89 44 24 20          	mov    %eax,0x20(%rsp)
  4015d6:	8b 44 24 10          	mov    0x10(%rsp),%eax
  4015da:	69 c0 6b e4 00 00    	imul   $0xe46b,%eax,%eax
  4015e0:	89 44 24 10          	mov    %eax,0x10(%rsp)
  4015e4:	8b 44 24 08          	mov    0x8(%rsp),%eax
  4015e8:	69 c0 db 8c 00 00    	imul   $0x8cdb,%eax,%eax
  4015ee:	89 44 24 08          	mov    %eax,0x8(%rsp)
  4015f2:	8b 44 24 04          	mov    0x4(%rsp),%eax
  4015f6:	69 c0 29 c4 00 00    	imul   $0xc429,%eax,%eax
  4015fc:	89 44 24 04          	mov    %eax,0x4(%rsp)
  401600:	8b 44 24 10          	mov    0x10(%rsp),%eax
  401604:	69 c0 ce 72 00 00    	imul   $0x72ce,%eax,%eax
  40160a:	89 44 24 10          	mov    %eax,0x10(%rsp)
  40160e:	8b 44 24 10          	mov    0x10(%rsp),%eax
  401612:	69 c0 56 a1 00 00    	imul   $0xa156,%eax,%eax
  401618:	89 44 24 10          	mov    %eax,0x10(%rsp)
  40161c:	8b 44 24 24          	mov    0x24(%rsp),%eax
  401620:	69 c0 4c c9 00 00    	imul   $0xc94c,%eax,%eax
  401626:	89 44 24 24          	mov    %eax,0x24(%rsp)
  40162a:	8b 44 24 0c          	mov    0xc(%rsp),%eax
  40162e:	69 c0 7a 96 00 00    	imul   $0x967a,%eax,%eax
  401634:	89 44 24 0c          	mov    %eax,0xc(%rsp)
  401638:	8b 44 24 20          	mov    0x20(%rsp),%eax
  40163c:	69 c0 8b bd 00 00    	imul   $0xbd8b,%eax,%eax
  401642:	89 44 24 20          	mov    %eax,0x20(%rsp)
  401646:	8b 44 24 04          	mov    0x4(%rsp),%eax
  40164a:	69 c0 6b a2 00 00    	imul   $0xa26b,%eax,%eax
  401650:	89 44 24 04          	mov    %eax,0x4(%rsp)
  401654:	8b 44 24 18          	mov    0x18(%rsp),%eax
  401658:	69 c0 5a 80 00 00    	imul   $0x805a,%eax,%eax
  40165e:	89 44 24 18          	mov    %eax,0x18(%rsp)
  401662:	8b 44 24 14          	mov    0x14(%rsp),%eax
  401666:	69 c0 39 5f 00 00    	imul   $0x5f39,%eax,%eax
  40166c:	89 44 24 14          	mov    %eax,0x14(%rsp)
  401670:	8b 44 24 08          	mov    0x8(%rsp),%eax
  401674:	69 c0 7c 33 00 00    	imul   $0x337c,%eax,%eax
  40167a:	89 44 24 08          	mov    %eax,0x8(%rsp)
  40167e:	8b 04 24             	mov    (%rsp),%eax
  401681:	69 c0 62 b5 00 00    	imul   $0xb562,%eax,%eax
  401687:	89 04 24             	mov    %eax,(%rsp)
  40168a:	8b 44 24 20          	mov    0x20(%rsp),%eax
  40168e:	69 c0 9e 2d 00 00    	imul   $0x2d9e,%eax,%eax
  401694:	89 44 24 20          	mov    %eax,0x20(%rsp)
  401698:	8b 44 24 04          	mov    0x4(%rsp),%eax
  40169c:	69 c0 bc 00 00 00    	imul   $0xbc,%eax,%eax
  4016a2:	89 44 24 04          	mov    %eax,0x4(%rsp)
  4016a6:	8b 44 24 0c          	mov    0xc(%rsp),%eax
  4016aa:	69 c0 c2 93 00 00    	imul   $0x93c2,%eax,%eax
  4016b0:	89 44 24 0c          	mov    %eax,0xc(%rsp)
  4016b4:	8b 44 24 04          	mov    0x4(%rsp),%eax
  4016b8:	69 c0 7d 5d 00 00    	imul   $0x5d7d,%eax,%eax
  4016be:	89 44 24 04          	mov    %eax,0x4(%rsp)
  4016c2:	8b 44 24 04          	mov    0x4(%rsp),%eax
  4016c6:	69 c0 1f 77 00 00    	imul   $0x771f,%eax,%eax
  4016cc:	89 44 24 04          	mov    %eax,0x4(%rsp)
  4016d0:	8b 44 24 20          	mov    0x20(%rsp),%eax
  4016d4:	69 c0 d2 40 00 00    	imul   $0x40d2,%eax,%eax
  4016da:	89 44 24 20          	mov    %eax,0x20(%rsp)
  4016de:	8b 44 24 20          	mov    0x20(%rsp),%eax
  4016e2:	69 c0 03 44 00 00    	imul   $0x4403,%eax,%eax
  4016e8:	89 44 24 20          	mov    %eax,0x20(%rsp)
  4016ec:	8b 44 24 0c          	mov    0xc(%rsp),%eax
  4016f0:	69 c0 46 ac 00 00    	imul   $0xac46,%eax,%eax
  4016f6:	89 44 24 0c          	mov    %eax,0xc(%rsp)
  4016fa:	8b 44 24 08          	mov    0x8(%rsp),%eax
  4016fe:	69 c0 f8 d1 00 00    	imul   $0xd1f8,%eax,%eax
  401704:	89 44 24 08          	mov    %eax,0x8(%rsp)
  401708:	8b 44 24 0c          	mov    0xc(%rsp),%eax
  40170c:	69 c0 da cb 00 00    	imul   $0xcbda,%eax,%eax
  401712:	89 44 24 0c          	mov    %eax,0xc(%rsp)
  401716:	8b 44 24 24          	mov    0x24(%rsp),%eax
  40171a:	69 c0 48 2a 00 00    	imul   $0x2a48,%eax,%eax
  401720:	89 44 24 24          	mov    %eax,0x24(%rsp)
  401724:	8b 04 24             	mov    (%rsp),%eax
  401727:	69 c0 3f 0c 00 00    	imul   $0xc3f,%eax,%eax
  40172d:	89 04 24             	mov    %eax,(%rsp)
  401730:	8b 44 24 10          	mov    0x10(%rsp),%eax
  401734:	69 c0 99 61 00 00    	imul   $0x6199,%eax,%eax
  40173a:	89 44 24 10          	mov    %eax,0x10(%rsp)
  40173e:	8b 44 24 08          	mov    0x8(%rsp),%eax
  401742:	69 c0 48 0b 00 00    	imul   $0xb48,%eax,%eax
  401748:	89 44 24 08          	mov    %eax,0x8(%rsp)
  40174c:	8b 04 24             	mov    (%rsp),%eax
  40174f:	69 c0 d4 8f 00 00    	imul   $0x8fd4,%eax,%eax
  401755:	89 04 24             	mov    %eax,(%rsp)
  401758:	8b 44 24 20          	mov    0x20(%rsp),%eax
  40175c:	69 c0 3c 2d 00 00    	imul   $0x2d3c,%eax,%eax
  401762:	89 44 24 20          	mov    %eax,0x20(%rsp)
  401766:	8b 44 24 18          	mov    0x18(%rsp),%eax
  40176a:	69 c0 23 59 00 00    	imul   $0x5923,%eax,%eax
  401770:	89 44 24 18          	mov    %eax,0x18(%rsp)
  401774:	8b 44 24 1c          	mov    0x1c(%rsp),%eax
  401778:	69 c0 c8 8e 00 00    	imul   $0x8ec8,%eax,%eax
  40177e:	89 44 24 1c          	mov    %eax,0x1c(%rsp)
  401782:	8b 44 24 24          	mov    0x24(%rsp),%eax
  401786:	69 c0 20 13 00 00    	imul   $0x1320,%eax,%eax
  40178c:	89 44 24 24          	mov    %eax,0x24(%rsp)
  401790:	8b 44 24 1c          	mov    0x1c(%rsp),%eax
  401794:	69 c0 83 0d 00 00    	imul   $0xd83,%eax,%eax
  40179a:	89 44 24 1c          	mov    %eax,0x1c(%rsp)
  40179e:	8b 44 24 14          	mov    0x14(%rsp),%eax
  4017a2:	69 c0 ec 0d 00 00    	imul   $0xdec,%eax,%eax
  4017a8:	89 44 24 14          	mov    %eax,0x14(%rsp)
  4017ac:	8b 44 24 18          	mov    0x18(%rsp),%eax
  4017b0:	69 c0 2d 74 00 00    	imul   $0x742d,%eax,%eax
  4017b6:	89 44 24 18          	mov    %eax,0x18(%rsp)
  4017ba:	8b 44 24 04          	mov    0x4(%rsp),%eax
  4017be:	69 c0 7e 30 00 00    	imul   $0x307e,%eax,%eax
  4017c4:	89 44 24 04          	mov    %eax,0x4(%rsp)
  4017c8:	8b 44 24 10          	mov    0x10(%rsp),%eax
  4017cc:	69 c0 3f 5f 00 00    	imul   $0x5f3f,%eax,%eax
  4017d2:	89 44 24 10          	mov    %eax,0x10(%rsp)
  4017d6:	8b 44 24 20          	mov    0x20(%rsp),%eax
  4017da:	69 c0 33 63 00 00    	imul   $0x6333,%eax,%eax
  4017e0:	89 44 24 20          	mov    %eax,0x20(%rsp)
  4017e4:	8b 44 24 18          	mov    0x18(%rsp),%eax
  4017e8:	69 c0 f9 91 00 00    	imul   $0x91f9,%eax,%eax
  4017ee:	89 44 24 18          	mov    %eax,0x18(%rsp)
  4017f2:	8b 44 24 18          	mov    0x18(%rsp),%eax
  4017f6:	69 c0 5f 99 00 00    	imul   $0x995f,%eax,%eax
  4017fc:	89 44 24 18          	mov    %eax,0x18(%rsp)
  401800:	8b 44 24 14          	mov    0x14(%rsp),%eax
  401804:	69 c0 1e 38 00 00    	imul   $0x381e,%eax,%eax
  40180a:	89 44 24 14          	mov    %eax,0x14(%rsp)
  40180e:	8b 44 24 10          	mov    0x10(%rsp),%eax
  401812:	69 c0 b0 09 00 00    	imul   $0x9b0,%eax,%eax
  401818:	89 44 24 10          	mov    %eax,0x10(%rsp)
  40181c:	8b 44 24 24          	mov    0x24(%rsp),%eax
  401820:	69 c0 0f 90 00 00    	imul   $0x900f,%eax,%eax
  401826:	89 44 24 24          	mov    %eax,0x24(%rsp)
  40182a:	8b 44 24 24          	mov    0x24(%rsp),%eax
  40182e:	69 c0 11 04 00 00    	imul   $0x411,%eax,%eax
  401834:	89 44 24 24          	mov    %eax,0x24(%rsp)
  401838:	8b 44 24 18          	mov    0x18(%rsp),%eax
  40183c:	69 c0 f7 56 00 00    	imul   $0x56f7,%eax,%eax
  401842:	89 44 24 18          	mov    %eax,0x18(%rsp)
  401846:	8b 44 24 24          	mov    0x24(%rsp),%eax
  40184a:	69 c0 44 eb 00 00    	imul   $0xeb44,%eax,%eax
  401850:	89 44 24 24          	mov    %eax,0x24(%rsp)
  401854:	8b 04 24             	mov    (%rsp),%eax
  401857:	69 c0 19 4a 00 00    	imul   $0x4a19,%eax,%eax
  40185d:	89 04 24             	mov    %eax,(%rsp)
  401860:	8b 44 24 10          	mov    0x10(%rsp),%eax
  401864:	69 c0 05 d2 00 00    	imul   $0xd205,%eax,%eax
  40186a:	89 44 24 10          	mov    %eax,0x10(%rsp)
  40186e:	8b 44 24 24          	mov    0x24(%rsp),%eax
  401872:	69 c0 a3 88 00 00    	imul   $0x88a3,%eax,%eax
  401878:	89 44 24 24          	mov    %eax,0x24(%rsp)
  40187c:	ba 00 00 00 00       	mov    $0x0,%edx
  401881:	b8 00 00 00 00       	mov    $0x0,%eax
  401886:	eb 0a                	jmp    401892 <scramble+0x503>
  401888:	89 d1                	mov    %edx,%ecx
  40188a:	8b 0c 8c             	mov    (%rsp,%rcx,4),%ecx
  40188d:	01 c8                	add    %ecx,%eax
  40188f:	83 c2 01             	add    $0x1,%edx
  401892:	83 fa 09             	cmp    $0x9,%edx
  401895:	76 f1                	jbe    401888 <scramble+0x4f9>
  401897:	48 8b 74 24 28       	mov    0x28(%rsp),%rsi
  40189c:	64 48 33 34 25 28 00 	xor    %fs:0x28,%rsi
  4018a3:	00 00 
  4018a5:	74 05                	je     4018ac <scramble+0x51d>
  4018a7:	e8 44 f4 ff ff       	callq  400cf0 <__stack_chk_fail@plt>
  4018ac:	48 83 c4 38          	add    $0x38,%rsp
  4018b0:	c3                   	retq   

00000000004018b1 <getbuf>:
  4018b1:	48 83 ec 38          	sub    $0x38,%rsp
  4018b5:	48 89 e7             	mov    %rsp,%rdi
  4018b8:	e8 a0 03 00 00       	callq  401c5d <Gets>
  4018bd:	b8 01 00 00 00       	mov    $0x1,%eax
  4018c2:	48 83 c4 38          	add    $0x38,%rsp
  4018c6:	c3                   	retq   

00000000004018c7 <touch1>:
  4018c7:	48 83 ec 08          	sub    $0x8,%rsp
  4018cb:	c7 05 47 3c 20 00 01 	movl   $0x1,0x203c47(%rip)        # 60551c <vlevel>
  4018d2:	00 00 00 
  4018d5:	bf 40 34 40 00       	mov    $0x403440,%edi
  4018da:	e8 f1 f3 ff ff       	callq  400cd0 <puts@plt>
  4018df:	bf 01 00 00 00       	mov    $0x1,%edi
  4018e4:	e8 b9 05 00 00       	callq  401ea2 <validate>
  4018e9:	bf 00 00 00 00       	mov    $0x0,%edi
  4018ee:	e8 5d f5 ff ff       	callq  400e50 <exit@plt>

00000000004018f3 <touch2>:
  4018f3:	48 83 ec 08          	sub    $0x8,%rsp
  4018f7:	89 fa                	mov    %edi,%edx
  4018f9:	c7 05 19 3c 20 00 02 	movl   $0x2,0x203c19(%rip)        # 60551c <vlevel>
  401900:	00 00 00 
  401903:	39 3d 1b 3c 20 00    	cmp    %edi,0x203c1b(%rip)        # 605524 <cookie>
  401909:	75 20                	jne    40192b <touch2+0x38>
  40190b:	be 68 34 40 00       	mov    $0x403468,%esi
  401910:	bf 01 00 00 00       	mov    $0x1,%edi
  401915:	b8 00 00 00 00       	mov    $0x0,%eax
  40191a:	e8 e1 f4 ff ff       	callq  400e00 <__printf_chk@plt>
  40191f:	bf 02 00 00 00       	mov    $0x2,%edi
  401924:	e8 79 05 00 00       	callq  401ea2 <validate>
  401929:	eb 1e                	jmp    401949 <touch2+0x56>
  40192b:	be 90 34 40 00       	mov    $0x403490,%esi
  401930:	bf 01 00 00 00       	mov    $0x1,%edi
  401935:	b8 00 00 00 00       	mov    $0x0,%eax
  40193a:	e8 c1 f4 ff ff       	callq  400e00 <__printf_chk@plt>
  40193f:	bf 02 00 00 00       	mov    $0x2,%edi
  401944:	e8 35 06 00 00       	callq  401f7e <fail>
  401949:	bf 00 00 00 00       	mov    $0x0,%edi
  40194e:	e8 fd f4 ff ff       	callq  400e50 <exit@plt>

0000000000401953 <hexmatch>:
  401953:	41 54                	push   %r12
  401955:	55                   	push   %rbp
  401956:	53                   	push   %rbx
  401957:	48 83 c4 80          	add    $0xffffffffffffff80,%rsp
  40195b:	89 fd                	mov    %edi,%ebp
  40195d:	48 89 f3             	mov    %rsi,%rbx
  401960:	64 48 8b 04 25 28 00 	mov    %fs:0x28,%rax
  401967:	00 00 
  401969:	48 89 44 24 78       	mov    %rax,0x78(%rsp)
  40196e:	31 c0                	xor    %eax,%eax
  401970:	e8 4b f4 ff ff       	callq  400dc0 <random@plt>
  401975:	48 89 c1             	mov    %rax,%rcx
  401978:	48 ba 0b d7 a3 70 3d 	movabs $0xa3d70a3d70a3d70b,%rdx
  40197f:	0a d7 a3 
  401982:	48 f7 ea             	imul   %rdx
  401985:	48 01 ca             	add    %rcx,%rdx
  401988:	48 c1 fa 06          	sar    $0x6,%rdx
  40198c:	48 89 c8             	mov    %rcx,%rax
  40198f:	48 c1 f8 3f          	sar    $0x3f,%rax
  401993:	48 29 c2             	sub    %rax,%rdx
  401996:	48 8d 04 92          	lea    (%rdx,%rdx,4),%rax
  40199a:	48 8d 14 80          	lea    (%rax,%rax,4),%rdx
  40199e:	48 8d 04 95 00 00 00 	lea    0x0(,%rdx,4),%rax
  4019a5:	00 
  4019a6:	48 29 c1             	sub    %rax,%rcx
  4019a9:	4c 8d 24 0c          	lea    (%rsp,%rcx,1),%r12
  4019ad:	41 89 e8             	mov    %ebp,%r8d
  4019b0:	b9 5d 34 40 00       	mov    $0x40345d,%ecx
  4019b5:	48 c7 c2 ff ff ff ff 	mov    $0xffffffffffffffff,%rdx
  4019bc:	be 01 00 00 00       	mov    $0x1,%esi
  4019c1:	4c 89 e7             	mov    %r12,%rdi
  4019c4:	b8 00 00 00 00       	mov    $0x0,%eax
  4019c9:	e8 b2 f4 ff ff       	callq  400e80 <__sprintf_chk@plt>
  4019ce:	ba 09 00 00 00       	mov    $0x9,%edx
  4019d3:	4c 89 e6             	mov    %r12,%rsi
  4019d6:	48 89 df             	mov    %rbx,%rdi
  4019d9:	e8 d2 f2 ff ff       	callq  400cb0 <strncmp@plt>
  4019de:	85 c0                	test   %eax,%eax
  4019e0:	0f 94 c0             	sete   %al
  4019e3:	48 8b 5c 24 78       	mov    0x78(%rsp),%rbx
  4019e8:	64 48 33 1c 25 28 00 	xor    %fs:0x28,%rbx
  4019ef:	00 00 
  4019f1:	74 05                	je     4019f8 <hexmatch+0xa5>
  4019f3:	e8 f8 f2 ff ff       	callq  400cf0 <__stack_chk_fail@plt>
  4019f8:	0f b6 c0             	movzbl %al,%eax
  4019fb:	48 83 ec 80          	sub    $0xffffffffffffff80,%rsp
  4019ff:	5b                   	pop    %rbx
  401a00:	5d                   	pop    %rbp
  401a01:	41 5c                	pop    %r12
  401a03:	c3                   	retq   

0000000000401a04 <touch3>:
  401a04:	53                   	push   %rbx
  401a05:	48 89 fb             	mov    %rdi,%rbx
  401a08:	c7 05 0a 3b 20 00 03 	movl   $0x3,0x203b0a(%rip)        # 60551c <vlevel>
  401a0f:	00 00 00 
  401a12:	48 89 fe             	mov    %rdi,%rsi
  401a15:	8b 3d 09 3b 20 00    	mov    0x203b09(%rip),%edi        # 605524 <cookie>
  401a1b:	e8 33 ff ff ff       	callq  401953 <hexmatch>
  401a20:	85 c0                	test   %eax,%eax
  401a22:	74 23                	je     401a47 <touch3+0x43>
  401a24:	48 89 da             	mov    %rbx,%rdx
  401a27:	be b8 34 40 00       	mov    $0x4034b8,%esi
  401a2c:	bf 01 00 00 00       	mov    $0x1,%edi
  401a31:	b8 00 00 00 00       	mov    $0x0,%eax
  401a36:	e8 c5 f3 ff ff       	callq  400e00 <__printf_chk@plt>
  401a3b:	bf 03 00 00 00       	mov    $0x3,%edi
  401a40:	e8 5d 04 00 00       	callq  401ea2 <validate>
  401a45:	eb 21                	jmp    401a68 <touch3+0x64>
  401a47:	48 89 da             	mov    %rbx,%rdx
  401a4a:	be e0 34 40 00       	mov    $0x4034e0,%esi
  401a4f:	bf 01 00 00 00       	mov    $0x1,%edi
  401a54:	b8 00 00 00 00       	mov    $0x0,%eax
  401a59:	e8 a2 f3 ff ff       	callq  400e00 <__printf_chk@plt>
  401a5e:	bf 03 00 00 00       	mov    $0x3,%edi
  401a63:	e8 16 05 00 00       	callq  401f7e <fail>
  401a68:	bf 00 00 00 00       	mov    $0x0,%edi
  401a6d:	e8 de f3 ff ff       	callq  400e50 <exit@plt>

0000000000401a72 <test>:
  401a72:	48 83 ec 08          	sub    $0x8,%rsp
  401a76:	b8 00 00 00 00       	mov    $0x0,%eax
  401a7b:	e8 31 fe ff ff       	callq  4018b1 <getbuf>
  401a80:	89 c2                	mov    %eax,%edx
  401a82:	be 08 35 40 00       	mov    $0x403508,%esi
  401a87:	bf 01 00 00 00       	mov    $0x1,%edi
  401a8c:	b8 00 00 00 00       	mov    $0x0,%eax
  401a91:	e8 6a f3 ff ff       	callq  400e00 <__printf_chk@plt>
  401a96:	48 83 c4 08          	add    $0x8,%rsp
  401a9a:	c3                   	retq   

0000000000401a9b <start_farm>:
  401a9b:	b8 01 00 00 00       	mov    $0x1,%eax
  401aa0:	c3                   	retq   

0000000000401aa1 <setval_147>:
  401aa1:	c7 07 71 a2 68 58    	movl   $0x5868a271,(%rdi)
  401aa7:	c3                   	retq   

0000000000401aa8 <addval_462>:
  401aa8:	8d 87 48 89 c7 92    	lea    -0x6d3876b8(%rdi),%eax
  401aae:	c3                   	retq   

0000000000401aaf <addval_340>:
  401aaf:	8d 87 58 90 94 c3    	lea    -0x3c6b6fa8(%rdi),%eax
  401ab5:	c3                   	retq   

0000000000401ab6 <addval_494>:
  401ab6:	8d 87 48 89 c7 c3    	lea    -0x3c3876b8(%rdi),%eax
  401abc:	c3                   	retq   

0000000000401abd <setval_325>:
  401abd:	c7 07 6b 0b 58 c1    	movl   $0xc1580b6b,(%rdi)
  401ac3:	c3                   	retq   

0000000000401ac4 <addval_432>:
  401ac4:	8d 87 48 89 c7 c3    	lea    -0x3c3876b8(%rdi),%eax
  401aca:	c3                   	retq   

0000000000401acb <addval_470>:
  401acb:	8d 87 0a 37 97 58    	lea    0x5897370a(%rdi),%eax
  401ad1:	c3                   	retq   

0000000000401ad2 <getval_111>:
  401ad2:	b8 08 89 c7 c3       	mov    $0xc3c78908,%eax
  401ad7:	c3                   	retq   

0000000000401ad8 <mid_farm>:
  401ad8:	b8 01 00 00 00       	mov    $0x1,%eax
  401add:	c3                   	retq   

0000000000401ade <add_xy>:
  401ade:	48 8d 04 37          	lea    (%rdi,%rsi,1),%rax
  401ae2:	c3                   	retq   

0000000000401ae3 <addval_477>:
  401ae3:	8d 87 48 89 e0 c1    	lea    -0x3e1f76b8(%rdi),%eax
  401ae9:	c3                   	retq   

0000000000401aea <getval_176>:
  401aea:	b8 a9 d1 84 db       	mov    $0xdb84d1a9,%eax
  401aef:	c3                   	retq   

0000000000401af0 <addval_345>:
  401af0:	8d 87 48 89 e0 c3    	lea    -0x3c1f76b8(%rdi),%eax
  401af6:	c3                   	retq   

0000000000401af7 <addval_232>:
  401af7:	8d 87 89 ce 20 c9    	lea    -0x36df3177(%rdi),%eax
  401afd:	c3                   	retq   

0000000000401afe <addval_334>:
  401afe:	8d 87 89 d1 28 c0    	lea    -0x3fd72e77(%rdi),%eax
  401b04:	c3                   	retq   

0000000000401b05 <addval_398>:
  401b05:	8d 87 89 d1 78 db    	lea    -0x24872e77(%rdi),%eax
  401b0b:	c3                   	retq   

0000000000401b0c <setval_437>:
  401b0c:	c7 07 89 ce c4 c9    	movl   $0xc9c4ce89,(%rdi)
  401b12:	c3                   	retq   

0000000000401b13 <getval_117>:
  401b13:	b8 99 c2 84 db       	mov    $0xdb84c299,%eax
  401b18:	c3                   	retq   

0000000000401b19 <getval_144>:
  401b19:	b8 89 c2 a4 db       	mov    $0xdba4c289,%eax
  401b1e:	c3                   	retq   

0000000000401b1f <setval_130>:
  401b1f:	c7 07 48 89 e0 92    	movl   $0x92e08948,(%rdi)
  401b25:	c3                   	retq   

0000000000401b26 <addval_152>:
  401b26:	8d 87 89 d1 84 db    	lea    -0x247b2e77(%rdi),%eax
  401b2c:	c3                   	retq   

0000000000401b2d <setval_227>:
  401b2d:	c7 07 e0 8d ce 90    	movl   $0x90ce8de0,(%rdi)
  401b33:	c3                   	retq   

0000000000401b34 <addval_212>:
  401b34:	8d 87 8d 89 d1 c2    	lea    -0x3d2e7673(%rdi),%eax
  401b3a:	c3                   	retq   

0000000000401b3b <getval_361>:
  401b3b:	b8 99 ce 90 90       	mov    $0x9090ce99,%eax
  401b40:	c3                   	retq   

0000000000401b41 <addval_138>:
  401b41:	8d 87 8b ce 38 db    	lea    -0x24c73175(%rdi),%eax
  401b47:	c3                   	retq   

0000000000401b48 <getval_139>:
  401b48:	b8 89 d1 38 c0       	mov    $0xc038d189,%eax
  401b4d:	c3                   	retq   

0000000000401b4e <addval_165>:
  401b4e:	8d 87 48 89 e0 90    	lea    -0x6f1f76b8(%rdi),%eax
  401b54:	c3                   	retq   

0000000000401b55 <getval_343>:
  401b55:	b8 89 ce 90 90       	mov    $0x9090ce89,%eax
  401b5a:	c3                   	retq   

0000000000401b5b <getval_238>:
  401b5b:	b8 89 c2 20 d2       	mov    $0xd220c289,%eax
  401b60:	c3                   	retq   

0000000000401b61 <getval_298>:
  401b61:	b8 70 90 8d ce       	mov    $0xce8d9070,%eax
  401b66:	c3                   	retq   

0000000000401b67 <getval_421>:
  401b67:	b8 89 c2 18 c9       	mov    $0xc918c289,%eax
  401b6c:	c3                   	retq   

0000000000401b6d <addval_167>:
  401b6d:	8d 87 89 c2 90 c3    	lea    -0x3c6f3d77(%rdi),%eax
  401b73:	c3                   	retq   

0000000000401b74 <setval_348>:
  401b74:	c7 07 48 89 e0 c1    	movl   $0xc1e08948,(%rdi)
  401b7a:	c3                   	retq   

0000000000401b7b <setval_107>:
  401b7b:	c7 07 09 c2 38 db    	movl   $0xdb38c209,(%rdi)
  401b81:	c3                   	retq   

0000000000401b82 <getval_249>:
  401b82:	b8 d1 4c 89 e0       	mov    $0xe0894cd1,%eax
  401b87:	c3                   	retq   

0000000000401b88 <getval_497>:
  401b88:	b8 89 c2 92 c3       	mov    $0xc392c289,%eax
  401b8d:	c3                   	retq   

0000000000401b8e <setval_404>:
  401b8e:	c7 07 88 d1 08 db    	movl   $0xdb08d188,(%rdi)
  401b94:	c3                   	retq   

0000000000401b95 <getval_222>:
  401b95:	b8 58 89 e0 90       	mov    $0x90e08958,%eax
  401b9a:	c3                   	retq   

0000000000401b9b <addval_188>:
  401b9b:	8d 87 48 89 e0 91    	lea    -0x6e1f76b8(%rdi),%eax
  401ba1:	c3                   	retq   

0000000000401ba2 <addval_268>:
  401ba2:	8d 87 89 c2 c4 d2    	lea    -0x2d3b3d77(%rdi),%eax
  401ba8:	c3                   	retq   

0000000000401ba9 <addval_422>:
  401ba9:	8d 87 89 ce 48 db    	lea    -0x24b73177(%rdi),%eax
  401baf:	c3                   	retq   

0000000000401bb0 <setval_350>:
  401bb0:	c7 07 89 d1 c2 d5    	movl   $0xd5c2d189,(%rdi)
  401bb6:	c3                   	retq   

0000000000401bb7 <end_farm>:
  401bb7:	b8 01 00 00 00       	mov    $0x1,%eax
  401bbc:	c3                   	retq   

0000000000401bbd <save_char>:
  401bbd:	8b 05 81 45 20 00    	mov    0x204581(%rip),%eax        # 606144 <gets_cnt>
  401bc3:	3d ff 03 00 00       	cmp    $0x3ff,%eax
  401bc8:	7f 49                	jg     401c13 <save_char+0x56>
  401bca:	8d 14 40             	lea    (%rax,%rax,2),%edx
  401bcd:	89 f9                	mov    %edi,%ecx
  401bcf:	c0 e9 04             	shr    $0x4,%cl
  401bd2:	83 e1 0f             	and    $0xf,%ecx
  401bd5:	0f b6 b1 30 38 40 00 	movzbl 0x403830(%rcx),%esi
  401bdc:	48 63 ca             	movslq %edx,%rcx
  401bdf:	40 88 b1 40 55 60 00 	mov    %sil,0x605540(%rcx)
  401be6:	8d 4a 01             	lea    0x1(%rdx),%ecx
  401be9:	83 e7 0f             	and    $0xf,%edi
  401bec:	0f b6 b7 30 38 40 00 	movzbl 0x403830(%rdi),%esi
  401bf3:	48 63 c9             	movslq %ecx,%rcx
  401bf6:	40 88 b1 40 55 60 00 	mov    %sil,0x605540(%rcx)
  401bfd:	83 c2 02             	add    $0x2,%edx
  401c00:	48 63 d2             	movslq %edx,%rdx
  401c03:	c6 82 40 55 60 00 20 	movb   $0x20,0x605540(%rdx)
  401c0a:	83 c0 01             	add    $0x1,%eax
  401c0d:	89 05 31 45 20 00    	mov    %eax,0x204531(%rip)        # 606144 <gets_cnt>
  401c13:	f3 c3                	repz retq 

0000000000401c15 <save_term>:
  401c15:	8b 05 29 45 20 00    	mov    0x204529(%rip),%eax        # 606144 <gets_cnt>
  401c1b:	8d 04 40             	lea    (%rax,%rax,2),%eax
  401c1e:	48 98                	cltq   
  401c20:	c6 80 40 55 60 00 00 	movb   $0x0,0x605540(%rax)
  401c27:	c3                   	retq   

0000000000401c28 <check_fail>:
  401c28:	48 83 ec 08          	sub    $0x8,%rsp
  401c2c:	0f be 15 15 45 20 00 	movsbl 0x204515(%rip),%edx        # 606148 <target_prefix>
  401c33:	41 b8 40 55 60 00    	mov    $0x605540,%r8d
  401c39:	8b 0d d9 38 20 00    	mov    0x2038d9(%rip),%ecx        # 605518 <check_level>
  401c3f:	be 2b 35 40 00       	mov    $0x40352b,%esi
  401c44:	bf 01 00 00 00       	mov    $0x1,%edi
  401c49:	b8 00 00 00 00       	mov    $0x0,%eax
  401c4e:	e8 ad f1 ff ff       	callq  400e00 <__printf_chk@plt>
  401c53:	bf 01 00 00 00       	mov    $0x1,%edi
  401c58:	e8 f3 f1 ff ff       	callq  400e50 <exit@plt>

0000000000401c5d <Gets>:
  401c5d:	41 54                	push   %r12
  401c5f:	55                   	push   %rbp
  401c60:	53                   	push   %rbx
  401c61:	49 89 fc             	mov    %rdi,%r12
  401c64:	c7 05 d6 44 20 00 00 	movl   $0x0,0x2044d6(%rip)        # 606144 <gets_cnt>
  401c6b:	00 00 00 
  401c6e:	48 89 fb             	mov    %rdi,%rbx
  401c71:	eb 11                	jmp    401c84 <Gets+0x27>
  401c73:	48 8d 6b 01          	lea    0x1(%rbx),%rbp
  401c77:	88 03                	mov    %al,(%rbx)
  401c79:	0f b6 f8             	movzbl %al,%edi
  401c7c:	e8 3c ff ff ff       	callq  401bbd <save_char>
  401c81:	48 89 eb             	mov    %rbp,%rbx
  401c84:	48 8b 3d 85 38 20 00 	mov    0x203885(%rip),%rdi        # 605510 <infile>
  401c8b:	e8 40 f1 ff ff       	callq  400dd0 <_IO_getc@plt>
  401c90:	83 f8 ff             	cmp    $0xffffffff,%eax
  401c93:	74 05                	je     401c9a <Gets+0x3d>
  401c95:	83 f8 0a             	cmp    $0xa,%eax
  401c98:	75 d9                	jne    401c73 <Gets+0x16>
  401c9a:	c6 03 00             	movb   $0x0,(%rbx)
  401c9d:	b8 00 00 00 00       	mov    $0x0,%eax
  401ca2:	e8 6e ff ff ff       	callq  401c15 <save_term>
  401ca7:	4c 89 e0             	mov    %r12,%rax
  401caa:	5b                   	pop    %rbx
  401cab:	5d                   	pop    %rbp
  401cac:	41 5c                	pop    %r12
  401cae:	c3                   	retq   

0000000000401caf <notify_server>:
  401caf:	53                   	push   %rbx
  401cb0:	48 81 ec 10 40 00 00 	sub    $0x4010,%rsp
  401cb7:	64 48 8b 04 25 28 00 	mov    %fs:0x28,%rax
  401cbe:	00 00 
  401cc0:	48 89 84 24 08 40 00 	mov    %rax,0x4008(%rsp)
  401cc7:	00 
  401cc8:	31 c0                	xor    %eax,%eax
  401cca:	83 3d 57 38 20 00 00 	cmpl   $0x0,0x203857(%rip)        # 605528 <is_checker>
  401cd1:	0f 85 aa 01 00 00    	jne    401e81 <notify_server+0x1d2>
  401cd7:	89 fb                	mov    %edi,%ebx
  401cd9:	8b 05 65 44 20 00    	mov    0x204465(%rip),%eax        # 606144 <gets_cnt>
  401cdf:	83 c0 64             	add    $0x64,%eax
  401ce2:	3d 00 20 00 00       	cmp    $0x2000,%eax
  401ce7:	7e 1e                	jle    401d07 <notify_server+0x58>
  401ce9:	be 60 36 40 00       	mov    $0x403660,%esi
  401cee:	bf 01 00 00 00       	mov    $0x1,%edi
  401cf3:	b8 00 00 00 00       	mov    $0x0,%eax
  401cf8:	e8 03 f1 ff ff       	callq  400e00 <__printf_chk@plt>
  401cfd:	bf 01 00 00 00       	mov    $0x1,%edi
  401d02:	e8 49 f1 ff ff       	callq  400e50 <exit@plt>
  401d07:	0f be 05 3a 44 20 00 	movsbl 0x20443a(%rip),%eax        # 606148 <target_prefix>
  401d0e:	83 3d 93 37 20 00 00 	cmpl   $0x0,0x203793(%rip)        # 6054a8 <notify>
  401d15:	74 08                	je     401d1f <notify_server+0x70>
  401d17:	8b 15 03 38 20 00    	mov    0x203803(%rip),%edx        # 605520 <authkey>
  401d1d:	eb 05                	jmp    401d24 <notify_server+0x75>
  401d1f:	ba ff ff ff ff       	mov    $0xffffffff,%edx
  401d24:	85 db                	test   %ebx,%ebx
  401d26:	74 08                	je     401d30 <notify_server+0x81>
  401d28:	41 b9 41 35 40 00    	mov    $0x403541,%r9d
  401d2e:	eb 06                	jmp    401d36 <notify_server+0x87>
  401d30:	41 b9 46 35 40 00    	mov    $0x403546,%r9d
  401d36:	68 40 55 60 00       	pushq  $0x605540
  401d3b:	56                   	push   %rsi
  401d3c:	50                   	push   %rax
  401d3d:	52                   	push   %rdx
  401d3e:	44 8b 05 23 34 20 00 	mov    0x203423(%rip),%r8d        # 605168 <target_id>
  401d45:	b9 4b 35 40 00       	mov    $0x40354b,%ecx
  401d4a:	ba 00 20 00 00       	mov    $0x2000,%edx
  401d4f:	be 01 00 00 00       	mov    $0x1,%esi
  401d54:	48 8d 7c 24 20       	lea    0x20(%rsp),%rdi
  401d59:	b8 00 00 00 00       	mov    $0x0,%eax
  401d5e:	e8 1d f1 ff ff       	callq  400e80 <__sprintf_chk@plt>
  401d63:	48 83 c4 20          	add    $0x20,%rsp
  401d67:	83 3d 3a 37 20 00 00 	cmpl   $0x0,0x20373a(%rip)        # 6054a8 <notify>
  401d6e:	0f 84 81 00 00 00    	je     401df5 <notify_server+0x146>
  401d74:	85 db                	test   %ebx,%ebx
  401d76:	74 6e                	je     401de6 <notify_server+0x137>
  401d78:	4c 8d 8c 24 00 20 00 	lea    0x2000(%rsp),%r9
  401d7f:	00 
  401d80:	41 b8 00 00 00 00    	mov    $0x0,%r8d
  401d86:	48 89 e1             	mov    %rsp,%rcx
  401d89:	48 8b 15 e0 33 20 00 	mov    0x2033e0(%rip),%rdx        # 605170 <lab>
  401d90:	48 8b 35 e1 33 20 00 	mov    0x2033e1(%rip),%rsi        # 605178 <course>
  401d97:	48 8b 3d c2 33 20 00 	mov    0x2033c2(%rip),%rdi        # 605160 <user_id>
  401d9e:	e8 09 11 00 00       	callq  402eac <driver_post>
  401da3:	85 c0                	test   %eax,%eax
  401da5:	79 26                	jns    401dcd <notify_server+0x11e>
  401da7:	48 8d 94 24 00 20 00 	lea    0x2000(%rsp),%rdx
  401dae:	00 
  401daf:	be 67 35 40 00       	mov    $0x403567,%esi
  401db4:	bf 01 00 00 00       	mov    $0x1,%edi
  401db9:	b8 00 00 00 00       	mov    $0x0,%eax
  401dbe:	e8 3d f0 ff ff       	callq  400e00 <__printf_chk@plt>
  401dc3:	bf 01 00 00 00       	mov    $0x1,%edi
  401dc8:	e8 83 f0 ff ff       	callq  400e50 <exit@plt>
  401dcd:	bf 90 36 40 00       	mov    $0x403690,%edi
  401dd2:	e8 f9 ee ff ff       	callq  400cd0 <puts@plt>
  401dd7:	bf 73 35 40 00       	mov    $0x403573,%edi
  401ddc:	e8 ef ee ff ff       	callq  400cd0 <puts@plt>
  401de1:	e9 9b 00 00 00       	jmpq   401e81 <notify_server+0x1d2>
  401de6:	bf 7d 35 40 00       	mov    $0x40357d,%edi
  401deb:	e8 e0 ee ff ff       	callq  400cd0 <puts@plt>
  401df0:	e9 8c 00 00 00       	jmpq   401e81 <notify_server+0x1d2>
  401df5:	85 db                	test   %ebx,%ebx
  401df7:	74 07                	je     401e00 <notify_server+0x151>
  401df9:	ba 41 35 40 00       	mov    $0x403541,%edx
  401dfe:	eb 05                	jmp    401e05 <notify_server+0x156>
  401e00:	ba 46 35 40 00       	mov    $0x403546,%edx
  401e05:	be c8 36 40 00       	mov    $0x4036c8,%esi
  401e0a:	bf 01 00 00 00       	mov    $0x1,%edi
  401e0f:	b8 00 00 00 00       	mov    $0x0,%eax
  401e14:	e8 e7 ef ff ff       	callq  400e00 <__printf_chk@plt>
  401e19:	48 8b 15 40 33 20 00 	mov    0x203340(%rip),%rdx        # 605160 <user_id>
  401e20:	be 84 35 40 00       	mov    $0x403584,%esi
  401e25:	bf 01 00 00 00       	mov    $0x1,%edi
  401e2a:	b8 00 00 00 00       	mov    $0x0,%eax
  401e2f:	e8 cc ef ff ff       	callq  400e00 <__printf_chk@plt>
  401e34:	48 8b 15 3d 33 20 00 	mov    0x20333d(%rip),%rdx        # 605178 <course>
  401e3b:	be 91 35 40 00       	mov    $0x403591,%esi
  401e40:	bf 01 00 00 00       	mov    $0x1,%edi
  401e45:	b8 00 00 00 00       	mov    $0x0,%eax
  401e4a:	e8 b1 ef ff ff       	callq  400e00 <__printf_chk@plt>
  401e4f:	48 8b 15 1a 33 20 00 	mov    0x20331a(%rip),%rdx        # 605170 <lab>
  401e56:	be 9d 35 40 00       	mov    $0x40359d,%esi
  401e5b:	bf 01 00 00 00       	mov    $0x1,%edi
  401e60:	b8 00 00 00 00       	mov    $0x0,%eax
  401e65:	e8 96 ef ff ff       	callq  400e00 <__printf_chk@plt>
  401e6a:	48 89 e2             	mov    %rsp,%rdx
  401e6d:	be a6 35 40 00       	mov    $0x4035a6,%esi
  401e72:	bf 01 00 00 00       	mov    $0x1,%edi
  401e77:	b8 00 00 00 00       	mov    $0x0,%eax
  401e7c:	e8 7f ef ff ff       	callq  400e00 <__printf_chk@plt>
  401e81:	48 8b 84 24 08 40 00 	mov    0x4008(%rsp),%rax
  401e88:	00 
  401e89:	64 48 33 04 25 28 00 	xor    %fs:0x28,%rax
  401e90:	00 00 
  401e92:	74 05                	je     401e99 <notify_server+0x1ea>
  401e94:	e8 57 ee ff ff       	callq  400cf0 <__stack_chk_fail@plt>
  401e99:	48 81 c4 10 40 00 00 	add    $0x4010,%rsp
  401ea0:	5b                   	pop    %rbx
  401ea1:	c3                   	retq   

0000000000401ea2 <validate>:
  401ea2:	4c 8d 54 24 08       	lea    0x8(%rsp),%r10
  401ea7:	48 83 e4 f0          	and    $0xfffffffffffffff0,%rsp
  401eab:	41 ff 72 f8          	pushq  -0x8(%r10)
  401eaf:	55                   	push   %rbp
  401eb0:	48 89 e5             	mov    %rsp,%rbp
  401eb3:	41 52                	push   %r10
  401eb5:	53                   	push   %rbx
  401eb6:	89 fb                	mov    %edi,%ebx
  401eb8:	83 3d 69 36 20 00 00 	cmpl   $0x0,0x203669(%rip)        # 605528 <is_checker>
  401ebf:	74 6b                	je     401f2c <validate+0x8a>
  401ec1:	39 3d 55 36 20 00    	cmp    %edi,0x203655(%rip)        # 60551c <vlevel>
  401ec7:	74 14                	je     401edd <validate+0x3b>
  401ec9:	bf b2 35 40 00       	mov    $0x4035b2,%edi
  401ece:	e8 fd ed ff ff       	callq  400cd0 <puts@plt>
  401ed3:	b8 00 00 00 00       	mov    $0x0,%eax
  401ed8:	e8 4b fd ff ff       	callq  401c28 <check_fail>
  401edd:	8b 15 35 36 20 00    	mov    0x203635(%rip),%edx        # 605518 <check_level>
  401ee3:	39 d7                	cmp    %edx,%edi
  401ee5:	74 20                	je     401f07 <validate+0x65>
  401ee7:	89 f9                	mov    %edi,%ecx
  401ee9:	be f0 36 40 00       	mov    $0x4036f0,%esi
  401eee:	bf 01 00 00 00       	mov    $0x1,%edi
  401ef3:	b8 00 00 00 00       	mov    $0x0,%eax
  401ef8:	e8 03 ef ff ff       	callq  400e00 <__printf_chk@plt>
  401efd:	b8 00 00 00 00       	mov    $0x0,%eax
  401f02:	e8 21 fd ff ff       	callq  401c28 <check_fail>
  401f07:	0f be 15 3a 42 20 00 	movsbl 0x20423a(%rip),%edx        # 606148 <target_prefix>
  401f0e:	41 b8 40 55 60 00    	mov    $0x605540,%r8d
  401f14:	89 f9                	mov    %edi,%ecx
  401f16:	be d0 35 40 00       	mov    $0x4035d0,%esi
  401f1b:	bf 01 00 00 00       	mov    $0x1,%edi
  401f20:	b8 00 00 00 00       	mov    $0x0,%eax
  401f25:	e8 d6 ee ff ff       	callq  400e00 <__printf_chk@plt>
  401f2a:	eb 49                	jmp    401f75 <validate+0xd3>
  401f2c:	3b 3d ea 35 20 00    	cmp    0x2035ea(%rip),%edi        # 60551c <vlevel>
  401f32:	74 18                	je     401f4c <validate+0xaa>
  401f34:	bf b2 35 40 00       	mov    $0x4035b2,%edi
  401f39:	e8 92 ed ff ff       	callq  400cd0 <puts@plt>
  401f3e:	89 de                	mov    %ebx,%esi
  401f40:	bf 00 00 00 00       	mov    $0x0,%edi
  401f45:	e8 65 fd ff ff       	callq  401caf <notify_server>
  401f4a:	eb 29                	jmp    401f75 <validate+0xd3>
  401f4c:	0f be 0d f5 41 20 00 	movsbl 0x2041f5(%rip),%ecx        # 606148 <target_prefix>
  401f53:	89 fa                	mov    %edi,%edx
  401f55:	be 18 37 40 00       	mov    $0x403718,%esi
  401f5a:	bf 01 00 00 00       	mov    $0x1,%edi
  401f5f:	b8 00 00 00 00       	mov    $0x0,%eax
  401f64:	e8 97 ee ff ff       	callq  400e00 <__printf_chk@plt>
  401f69:	89 de                	mov    %ebx,%esi
  401f6b:	bf 01 00 00 00       	mov    $0x1,%edi
  401f70:	e8 3a fd ff ff       	callq  401caf <notify_server>
  401f75:	5b                   	pop    %rbx
  401f76:	41 5a                	pop    %r10
  401f78:	5d                   	pop    %rbp
  401f79:	49 8d 62 f8          	lea    -0x8(%r10),%rsp
  401f7d:	c3                   	retq   

0000000000401f7e <fail>:
  401f7e:	48 83 ec 08          	sub    $0x8,%rsp
  401f82:	83 3d 9f 35 20 00 00 	cmpl   $0x0,0x20359f(%rip)        # 605528 <is_checker>
  401f89:	74 0a                	je     401f95 <fail+0x17>
  401f8b:	b8 00 00 00 00       	mov    $0x0,%eax
  401f90:	e8 93 fc ff ff       	callq  401c28 <check_fail>
  401f95:	89 fe                	mov    %edi,%esi
  401f97:	bf 00 00 00 00       	mov    $0x0,%edi
  401f9c:	e8 0e fd ff ff       	callq  401caf <notify_server>
  401fa1:	48 83 c4 08          	add    $0x8,%rsp
  401fa5:	c3                   	retq   

0000000000401fa6 <bushandler>:
  401fa6:	48 83 ec 08          	sub    $0x8,%rsp
  401faa:	83 3d 77 35 20 00 00 	cmpl   $0x0,0x203577(%rip)        # 605528 <is_checker>
  401fb1:	74 14                	je     401fc7 <bushandler+0x21>
  401fb3:	bf e5 35 40 00       	mov    $0x4035e5,%edi
  401fb8:	e8 13 ed ff ff       	callq  400cd0 <puts@plt>
  401fbd:	b8 00 00 00 00       	mov    $0x0,%eax
  401fc2:	e8 61 fc ff ff       	callq  401c28 <check_fail>
  401fc7:	bf 50 37 40 00       	mov    $0x403750,%edi
  401fcc:	e8 ff ec ff ff       	callq  400cd0 <puts@plt>
  401fd1:	bf ef 35 40 00       	mov    $0x4035ef,%edi
  401fd6:	e8 f5 ec ff ff       	callq  400cd0 <puts@plt>
  401fdb:	be 00 00 00 00       	mov    $0x0,%esi
  401fe0:	bf 00 00 00 00       	mov    $0x0,%edi
  401fe5:	e8 c5 fc ff ff       	callq  401caf <notify_server>
  401fea:	bf 01 00 00 00       	mov    $0x1,%edi
  401fef:	e8 5c ee ff ff       	callq  400e50 <exit@plt>

0000000000401ff4 <seghandler>:
  401ff4:	48 83 ec 08          	sub    $0x8,%rsp
  401ff8:	83 3d 29 35 20 00 00 	cmpl   $0x0,0x203529(%rip)        # 605528 <is_checker>
  401fff:	74 14                	je     402015 <seghandler+0x21>
  402001:	bf 05 36 40 00       	mov    $0x403605,%edi
  402006:	e8 c5 ec ff ff       	callq  400cd0 <puts@plt>
  40200b:	b8 00 00 00 00       	mov    $0x0,%eax
  402010:	e8 13 fc ff ff       	callq  401c28 <check_fail>
  402015:	bf 70 37 40 00       	mov    $0x403770,%edi
  40201a:	e8 b1 ec ff ff       	callq  400cd0 <puts@plt>
  40201f:	bf ef 35 40 00       	mov    $0x4035ef,%edi
  402024:	e8 a7 ec ff ff       	callq  400cd0 <puts@plt>
  402029:	be 00 00 00 00       	mov    $0x0,%esi
  40202e:	bf 00 00 00 00       	mov    $0x0,%edi
  402033:	e8 77 fc ff ff       	callq  401caf <notify_server>
  402038:	bf 01 00 00 00       	mov    $0x1,%edi
  40203d:	e8 0e ee ff ff       	callq  400e50 <exit@plt>

0000000000402042 <illegalhandler>:
  402042:	48 83 ec 08          	sub    $0x8,%rsp
  402046:	83 3d db 34 20 00 00 	cmpl   $0x0,0x2034db(%rip)        # 605528 <is_checker>
  40204d:	74 14                	je     402063 <illegalhandler+0x21>
  40204f:	bf 18 36 40 00       	mov    $0x403618,%edi
  402054:	e8 77 ec ff ff       	callq  400cd0 <puts@plt>
  402059:	b8 00 00 00 00       	mov    $0x0,%eax
  40205e:	e8 c5 fb ff ff       	callq  401c28 <check_fail>
  402063:	bf 98 37 40 00       	mov    $0x403798,%edi
  402068:	e8 63 ec ff ff       	callq  400cd0 <puts@plt>
  40206d:	bf ef 35 40 00       	mov    $0x4035ef,%edi
  402072:	e8 59 ec ff ff       	callq  400cd0 <puts@plt>
  402077:	be 00 00 00 00       	mov    $0x0,%esi
  40207c:	bf 00 00 00 00       	mov    $0x0,%edi
  402081:	e8 29 fc ff ff       	callq  401caf <notify_server>
  402086:	bf 01 00 00 00       	mov    $0x1,%edi
  40208b:	e8 c0 ed ff ff       	callq  400e50 <exit@plt>

0000000000402090 <sigalrmhandler>:
  402090:	48 83 ec 08          	sub    $0x8,%rsp
  402094:	83 3d 8d 34 20 00 00 	cmpl   $0x0,0x20348d(%rip)        # 605528 <is_checker>
  40209b:	74 14                	je     4020b1 <sigalrmhandler+0x21>
  40209d:	bf 2c 36 40 00       	mov    $0x40362c,%edi
  4020a2:	e8 29 ec ff ff       	callq  400cd0 <puts@plt>
  4020a7:	b8 00 00 00 00       	mov    $0x0,%eax
  4020ac:	e8 77 fb ff ff       	callq  401c28 <check_fail>
  4020b1:	ba 05 00 00 00       	mov    $0x5,%edx
  4020b6:	be c8 37 40 00       	mov    $0x4037c8,%esi
  4020bb:	bf 01 00 00 00       	mov    $0x1,%edi
  4020c0:	b8 00 00 00 00       	mov    $0x0,%eax
  4020c5:	e8 36 ed ff ff       	callq  400e00 <__printf_chk@plt>
  4020ca:	be 00 00 00 00       	mov    $0x0,%esi
  4020cf:	bf 00 00 00 00       	mov    $0x0,%edi
  4020d4:	e8 d6 fb ff ff       	callq  401caf <notify_server>
  4020d9:	bf 01 00 00 00       	mov    $0x1,%edi
  4020de:	e8 6d ed ff ff       	callq  400e50 <exit@plt>

00000000004020e3 <launch>:
  4020e3:	55                   	push   %rbp
  4020e4:	48 89 e5             	mov    %rsp,%rbp
  4020e7:	48 83 ec 10          	sub    $0x10,%rsp
  4020eb:	48 89 fa             	mov    %rdi,%rdx
  4020ee:	64 48 8b 04 25 28 00 	mov    %fs:0x28,%rax
  4020f5:	00 00 
  4020f7:	48 89 45 f8          	mov    %rax,-0x8(%rbp)
  4020fb:	31 c0                	xor    %eax,%eax
  4020fd:	48 8d 47 1e          	lea    0x1e(%rdi),%rax
  402101:	48 83 e0 f0          	and    $0xfffffffffffffff0,%rax
  402105:	48 29 c4             	sub    %rax,%rsp
  402108:	48 8d 7c 24 0f       	lea    0xf(%rsp),%rdi
  40210d:	48 83 e7 f0          	and    $0xfffffffffffffff0,%rdi
  402111:	be f4 00 00 00       	mov    $0xf4,%esi
  402116:	e8 f5 eb ff ff       	callq  400d10 <memset@plt>
  40211b:	48 8b 05 9e 33 20 00 	mov    0x20339e(%rip),%rax        # 6054c0 <stdin@@GLIBC_2.2.5>
  402122:	48 39 05 e7 33 20 00 	cmp    %rax,0x2033e7(%rip)        # 605510 <infile>
  402129:	75 14                	jne    40213f <launch+0x5c>
  40212b:	be 34 36 40 00       	mov    $0x403634,%esi
  402130:	bf 01 00 00 00       	mov    $0x1,%edi
  402135:	b8 00 00 00 00       	mov    $0x0,%eax
  40213a:	e8 c1 ec ff ff       	callq  400e00 <__printf_chk@plt>
  40213f:	c7 05 d3 33 20 00 00 	movl   $0x0,0x2033d3(%rip)        # 60551c <vlevel>
  402146:	00 00 00 
  402149:	b8 00 00 00 00       	mov    $0x0,%eax
  40214e:	e8 1f f9 ff ff       	callq  401a72 <test>
  402153:	83 3d ce 33 20 00 00 	cmpl   $0x0,0x2033ce(%rip)        # 605528 <is_checker>
  40215a:	74 14                	je     402170 <launch+0x8d>
  40215c:	bf 41 36 40 00       	mov    $0x403641,%edi
  402161:	e8 6a eb ff ff       	callq  400cd0 <puts@plt>
  402166:	b8 00 00 00 00       	mov    $0x0,%eax
  40216b:	e8 b8 fa ff ff       	callq  401c28 <check_fail>
  402170:	bf 4c 36 40 00       	mov    $0x40364c,%edi
  402175:	e8 56 eb ff ff       	callq  400cd0 <puts@plt>
  40217a:	48 8b 45 f8          	mov    -0x8(%rbp),%rax
  40217e:	64 48 33 04 25 28 00 	xor    %fs:0x28,%rax
  402185:	00 00 
  402187:	74 05                	je     40218e <launch+0xab>
  402189:	e8 62 eb ff ff       	callq  400cf0 <__stack_chk_fail@plt>
  40218e:	c9                   	leaveq 
  40218f:	c3                   	retq   

0000000000402190 <stable_launch>:
  402190:	53                   	push   %rbx
  402191:	48 89 3d 70 33 20 00 	mov    %rdi,0x203370(%rip)        # 605508 <global_offset>
  402198:	41 b9 00 00 00 00    	mov    $0x0,%r9d
  40219e:	41 b8 00 00 00 00    	mov    $0x0,%r8d
  4021a4:	b9 32 01 00 00       	mov    $0x132,%ecx
  4021a9:	ba 07 00 00 00       	mov    $0x7,%edx
  4021ae:	be 00 00 10 00       	mov    $0x100000,%esi
  4021b3:	bf 00 60 58 55       	mov    $0x55586000,%edi
  4021b8:	e8 43 eb ff ff       	callq  400d00 <mmap@plt>
  4021bd:	48 89 c3             	mov    %rax,%rbx
  4021c0:	48 3d 00 60 58 55    	cmp    $0x55586000,%rax
  4021c6:	74 37                	je     4021ff <stable_launch+0x6f>
  4021c8:	be 00 00 10 00       	mov    $0x100000,%esi
  4021cd:	48 89 c7             	mov    %rax,%rdi
  4021d0:	e8 1b ec ff ff       	callq  400df0 <munmap@plt>
  4021d5:	b9 00 60 58 55       	mov    $0x55586000,%ecx
  4021da:	ba 00 38 40 00       	mov    $0x403800,%edx
  4021df:	be 01 00 00 00       	mov    $0x1,%esi
  4021e4:	48 8b 3d f5 32 20 00 	mov    0x2032f5(%rip),%rdi        # 6054e0 <stderr@@GLIBC_2.2.5>
  4021eb:	b8 00 00 00 00       	mov    $0x0,%eax
  4021f0:	e8 7b ec ff ff       	callq  400e70 <__fprintf_chk@plt>
  4021f5:	bf 01 00 00 00       	mov    $0x1,%edi
  4021fa:	e8 51 ec ff ff       	callq  400e50 <exit@plt>
  4021ff:	48 8d 90 f8 ff 0f 00 	lea    0xffff8(%rax),%rdx
  402206:	48 89 15 43 3f 20 00 	mov    %rdx,0x203f43(%rip)        # 606150 <stack_top>
  40220d:	48 89 e0             	mov    %rsp,%rax
  402210:	48 89 d4             	mov    %rdx,%rsp
  402213:	48 89 c2             	mov    %rax,%rdx
  402216:	48 89 15 e3 32 20 00 	mov    %rdx,0x2032e3(%rip)        # 605500 <global_save_stack>
  40221d:	48 8b 3d e4 32 20 00 	mov    0x2032e4(%rip),%rdi        # 605508 <global_offset>
  402224:	e8 ba fe ff ff       	callq  4020e3 <launch>
  402229:	48 8b 05 d0 32 20 00 	mov    0x2032d0(%rip),%rax        # 605500 <global_save_stack>
  402230:	48 89 c4             	mov    %rax,%rsp
  402233:	be 00 00 10 00       	mov    $0x100000,%esi
  402238:	48 89 df             	mov    %rbx,%rdi
  40223b:	e8 b0 eb ff ff       	callq  400df0 <munmap@plt>
  402240:	5b                   	pop    %rbx
  402241:	c3                   	retq   

0000000000402242 <rio_readinitb>:
  402242:	89 37                	mov    %esi,(%rdi)
  402244:	c7 47 04 00 00 00 00 	movl   $0x0,0x4(%rdi)
  40224b:	48 8d 47 10          	lea    0x10(%rdi),%rax
  40224f:	48 89 47 08          	mov    %rax,0x8(%rdi)
  402253:	c3                   	retq   

0000000000402254 <sigalrm_handler>:
  402254:	48 83 ec 08          	sub    $0x8,%rsp
  402258:	b9 00 00 00 00       	mov    $0x0,%ecx
  40225d:	ba 40 38 40 00       	mov    $0x403840,%edx
  402262:	be 01 00 00 00       	mov    $0x1,%esi
  402267:	48 8b 3d 72 32 20 00 	mov    0x203272(%rip),%rdi        # 6054e0 <stderr@@GLIBC_2.2.5>
  40226e:	b8 00 00 00 00       	mov    $0x0,%eax
  402273:	e8 f8 eb ff ff       	callq  400e70 <__fprintf_chk@plt>
  402278:	bf 01 00 00 00       	mov    $0x1,%edi
  40227d:	e8 ce eb ff ff       	callq  400e50 <exit@plt>

0000000000402282 <rio_writen>:
  402282:	41 55                	push   %r13
  402284:	41 54                	push   %r12
  402286:	55                   	push   %rbp
  402287:	53                   	push   %rbx
  402288:	48 83 ec 08          	sub    $0x8,%rsp
  40228c:	41 89 fc             	mov    %edi,%r12d
  40228f:	48 89 f5             	mov    %rsi,%rbp
  402292:	49 89 d5             	mov    %rdx,%r13
  402295:	48 89 d3             	mov    %rdx,%rbx
  402298:	eb 28                	jmp    4022c2 <rio_writen+0x40>
  40229a:	48 89 da             	mov    %rbx,%rdx
  40229d:	48 89 ee             	mov    %rbp,%rsi
  4022a0:	44 89 e7             	mov    %r12d,%edi
  4022a3:	e8 38 ea ff ff       	callq  400ce0 <write@plt>
  4022a8:	48 85 c0             	test   %rax,%rax
  4022ab:	7f 0f                	jg     4022bc <rio_writen+0x3a>
  4022ad:	e8 de e9 ff ff       	callq  400c90 <__errno_location@plt>
  4022b2:	83 38 04             	cmpl   $0x4,(%rax)
  4022b5:	75 15                	jne    4022cc <rio_writen+0x4a>
  4022b7:	b8 00 00 00 00       	mov    $0x0,%eax
  4022bc:	48 29 c3             	sub    %rax,%rbx
  4022bf:	48 01 c5             	add    %rax,%rbp
  4022c2:	48 85 db             	test   %rbx,%rbx
  4022c5:	75 d3                	jne    40229a <rio_writen+0x18>
  4022c7:	4c 89 e8             	mov    %r13,%rax
  4022ca:	eb 07                	jmp    4022d3 <rio_writen+0x51>
  4022cc:	48 c7 c0 ff ff ff ff 	mov    $0xffffffffffffffff,%rax
  4022d3:	48 83 c4 08          	add    $0x8,%rsp
  4022d7:	5b                   	pop    %rbx
  4022d8:	5d                   	pop    %rbp
  4022d9:	41 5c                	pop    %r12
  4022db:	41 5d                	pop    %r13
  4022dd:	c3                   	retq   

00000000004022de <rio_read>:
  4022de:	41 55                	push   %r13
  4022e0:	41 54                	push   %r12
  4022e2:	55                   	push   %rbp
  4022e3:	53                   	push   %rbx
  4022e4:	48 83 ec 08          	sub    $0x8,%rsp
  4022e8:	48 89 fb             	mov    %rdi,%rbx
  4022eb:	49 89 f5             	mov    %rsi,%r13
  4022ee:	49 89 d4             	mov    %rdx,%r12
  4022f1:	eb 2e                	jmp    402321 <rio_read+0x43>
  4022f3:	48 8d 6b 10          	lea    0x10(%rbx),%rbp
  4022f7:	8b 3b                	mov    (%rbx),%edi
  4022f9:	ba 00 20 00 00       	mov    $0x2000,%edx
  4022fe:	48 89 ee             	mov    %rbp,%rsi
  402301:	e8 3a ea ff ff       	callq  400d40 <read@plt>
  402306:	89 43 04             	mov    %eax,0x4(%rbx)
  402309:	85 c0                	test   %eax,%eax
  40230b:	79 0c                	jns    402319 <rio_read+0x3b>
  40230d:	e8 7e e9 ff ff       	callq  400c90 <__errno_location@plt>
  402312:	83 38 04             	cmpl   $0x4,(%rax)
  402315:	74 0a                	je     402321 <rio_read+0x43>
  402317:	eb 37                	jmp    402350 <rio_read+0x72>
  402319:	85 c0                	test   %eax,%eax
  40231b:	74 3c                	je     402359 <rio_read+0x7b>
  40231d:	48 89 6b 08          	mov    %rbp,0x8(%rbx)
  402321:	8b 6b 04             	mov    0x4(%rbx),%ebp
  402324:	85 ed                	test   %ebp,%ebp
  402326:	7e cb                	jle    4022f3 <rio_read+0x15>
  402328:	89 e8                	mov    %ebp,%eax
  40232a:	49 39 c4             	cmp    %rax,%r12
  40232d:	77 03                	ja     402332 <rio_read+0x54>
  40232f:	44 89 e5             	mov    %r12d,%ebp
  402332:	4c 63 e5             	movslq %ebp,%r12
  402335:	48 8b 73 08          	mov    0x8(%rbx),%rsi
  402339:	4c 89 e2             	mov    %r12,%rdx
  40233c:	4c 89 ef             	mov    %r13,%rdi
  40233f:	e8 5c ea ff ff       	callq  400da0 <memcpy@plt>
  402344:	4c 01 63 08          	add    %r12,0x8(%rbx)
  402348:	29 6b 04             	sub    %ebp,0x4(%rbx)
  40234b:	4c 89 e0             	mov    %r12,%rax
  40234e:	eb 0e                	jmp    40235e <rio_read+0x80>
  402350:	48 c7 c0 ff ff ff ff 	mov    $0xffffffffffffffff,%rax
  402357:	eb 05                	jmp    40235e <rio_read+0x80>
  402359:	b8 00 00 00 00       	mov    $0x0,%eax
  40235e:	48 83 c4 08          	add    $0x8,%rsp
  402362:	5b                   	pop    %rbx
  402363:	5d                   	pop    %rbp
  402364:	41 5c                	pop    %r12
  402366:	41 5d                	pop    %r13
  402368:	c3                   	retq   

0000000000402369 <rio_readlineb>:
  402369:	41 55                	push   %r13
  40236b:	41 54                	push   %r12
  40236d:	55                   	push   %rbp
  40236e:	53                   	push   %rbx
  40236f:	48 83 ec 18          	sub    $0x18,%rsp
  402373:	49 89 fd             	mov    %rdi,%r13
  402376:	48 89 f5             	mov    %rsi,%rbp
  402379:	49 89 d4             	mov    %rdx,%r12
  40237c:	64 48 8b 04 25 28 00 	mov    %fs:0x28,%rax
  402383:	00 00 
  402385:	48 89 44 24 08       	mov    %rax,0x8(%rsp)
  40238a:	31 c0                	xor    %eax,%eax
  40238c:	bb 01 00 00 00       	mov    $0x1,%ebx
  402391:	eb 3f                	jmp    4023d2 <rio_readlineb+0x69>
  402393:	ba 01 00 00 00       	mov    $0x1,%edx
  402398:	48 8d 74 24 07       	lea    0x7(%rsp),%rsi
  40239d:	4c 89 ef             	mov    %r13,%rdi
  4023a0:	e8 39 ff ff ff       	callq  4022de <rio_read>
  4023a5:	83 f8 01             	cmp    $0x1,%eax
  4023a8:	75 15                	jne    4023bf <rio_readlineb+0x56>
  4023aa:	48 8d 45 01          	lea    0x1(%rbp),%rax
  4023ae:	0f b6 54 24 07       	movzbl 0x7(%rsp),%edx
  4023b3:	88 55 00             	mov    %dl,0x0(%rbp)
  4023b6:	80 7c 24 07 0a       	cmpb   $0xa,0x7(%rsp)
  4023bb:	75 0e                	jne    4023cb <rio_readlineb+0x62>
  4023bd:	eb 1a                	jmp    4023d9 <rio_readlineb+0x70>
  4023bf:	85 c0                	test   %eax,%eax
  4023c1:	75 22                	jne    4023e5 <rio_readlineb+0x7c>
  4023c3:	48 83 fb 01          	cmp    $0x1,%rbx
  4023c7:	75 13                	jne    4023dc <rio_readlineb+0x73>
  4023c9:	eb 23                	jmp    4023ee <rio_readlineb+0x85>
  4023cb:	48 83 c3 01          	add    $0x1,%rbx
  4023cf:	48 89 c5             	mov    %rax,%rbp
  4023d2:	4c 39 e3             	cmp    %r12,%rbx
  4023d5:	72 bc                	jb     402393 <rio_readlineb+0x2a>
  4023d7:	eb 03                	jmp    4023dc <rio_readlineb+0x73>
  4023d9:	48 89 c5             	mov    %rax,%rbp
  4023dc:	c6 45 00 00          	movb   $0x0,0x0(%rbp)
  4023e0:	48 89 d8             	mov    %rbx,%rax
  4023e3:	eb 0e                	jmp    4023f3 <rio_readlineb+0x8a>
  4023e5:	48 c7 c0 ff ff ff ff 	mov    $0xffffffffffffffff,%rax
  4023ec:	eb 05                	jmp    4023f3 <rio_readlineb+0x8a>
  4023ee:	b8 00 00 00 00       	mov    $0x0,%eax
  4023f3:	48 8b 4c 24 08       	mov    0x8(%rsp),%rcx
  4023f8:	64 48 33 0c 25 28 00 	xor    %fs:0x28,%rcx
  4023ff:	00 00 
  402401:	74 05                	je     402408 <rio_readlineb+0x9f>
  402403:	e8 e8 e8 ff ff       	callq  400cf0 <__stack_chk_fail@plt>
  402408:	48 83 c4 18          	add    $0x18,%rsp
  40240c:	5b                   	pop    %rbx
  40240d:	5d                   	pop    %rbp
  40240e:	41 5c                	pop    %r12
  402410:	41 5d                	pop    %r13
  402412:	c3                   	retq   

0000000000402413 <urlencode>:
  402413:	41 54                	push   %r12
  402415:	55                   	push   %rbp
  402416:	53                   	push   %rbx
  402417:	48 83 ec 10          	sub    $0x10,%rsp
  40241b:	48 89 fb             	mov    %rdi,%rbx
  40241e:	48 89 f5             	mov    %rsi,%rbp
  402421:	64 48 8b 04 25 28 00 	mov    %fs:0x28,%rax
  402428:	00 00 
  40242a:	48 89 44 24 08       	mov    %rax,0x8(%rsp)
  40242f:	31 c0                	xor    %eax,%eax
  402431:	48 c7 c1 ff ff ff ff 	mov    $0xffffffffffffffff,%rcx
  402438:	f2 ae                	repnz scas %es:(%rdi),%al
  40243a:	48 f7 d1             	not    %rcx
  40243d:	8d 41 ff             	lea    -0x1(%rcx),%eax
  402440:	e9 aa 00 00 00       	jmpq   4024ef <urlencode+0xdc>
  402445:	44 0f b6 03          	movzbl (%rbx),%r8d
  402449:	41 80 f8 2a          	cmp    $0x2a,%r8b
  40244d:	0f 94 c2             	sete   %dl
  402450:	41 80 f8 2d          	cmp    $0x2d,%r8b
  402454:	0f 94 c0             	sete   %al
  402457:	08 c2                	or     %al,%dl
  402459:	75 24                	jne    40247f <urlencode+0x6c>
  40245b:	41 80 f8 2e          	cmp    $0x2e,%r8b
  40245f:	74 1e                	je     40247f <urlencode+0x6c>
  402461:	41 80 f8 5f          	cmp    $0x5f,%r8b
  402465:	74 18                	je     40247f <urlencode+0x6c>
  402467:	41 8d 40 d0          	lea    -0x30(%r8),%eax
  40246b:	3c 09                	cmp    $0x9,%al
  40246d:	76 10                	jbe    40247f <urlencode+0x6c>
  40246f:	41 8d 40 bf          	lea    -0x41(%r8),%eax
  402473:	3c 19                	cmp    $0x19,%al
  402475:	76 08                	jbe    40247f <urlencode+0x6c>
  402477:	41 8d 40 9f          	lea    -0x61(%r8),%eax
  40247b:	3c 19                	cmp    $0x19,%al
  40247d:	77 0a                	ja     402489 <urlencode+0x76>
  40247f:	44 88 45 00          	mov    %r8b,0x0(%rbp)
  402483:	48 8d 6d 01          	lea    0x1(%rbp),%rbp
  402487:	eb 5f                	jmp    4024e8 <urlencode+0xd5>
  402489:	41 80 f8 20          	cmp    $0x20,%r8b
  40248d:	75 0a                	jne    402499 <urlencode+0x86>
  40248f:	c6 45 00 2b          	movb   $0x2b,0x0(%rbp)
  402493:	48 8d 6d 01          	lea    0x1(%rbp),%rbp
  402497:	eb 4f                	jmp    4024e8 <urlencode+0xd5>
  402499:	41 8d 40 e0          	lea    -0x20(%r8),%eax
  40249d:	3c 5f                	cmp    $0x5f,%al
  40249f:	0f 96 c2             	setbe  %dl
  4024a2:	41 80 f8 09          	cmp    $0x9,%r8b
  4024a6:	0f 94 c0             	sete   %al
  4024a9:	08 c2                	or     %al,%dl
  4024ab:	74 50                	je     4024fd <urlencode+0xea>
  4024ad:	45 0f b6 c0          	movzbl %r8b,%r8d
  4024b1:	b9 d8 38 40 00       	mov    $0x4038d8,%ecx
  4024b6:	ba 08 00 00 00       	mov    $0x8,%edx
  4024bb:	be 01 00 00 00       	mov    $0x1,%esi
  4024c0:	48 89 e7             	mov    %rsp,%rdi
  4024c3:	b8 00 00 00 00       	mov    $0x0,%eax
  4024c8:	e8 b3 e9 ff ff       	callq  400e80 <__sprintf_chk@plt>
  4024cd:	0f b6 04 24          	movzbl (%rsp),%eax
  4024d1:	88 45 00             	mov    %al,0x0(%rbp)
  4024d4:	0f b6 44 24 01       	movzbl 0x1(%rsp),%eax
  4024d9:	88 45 01             	mov    %al,0x1(%rbp)
  4024dc:	0f b6 44 24 02       	movzbl 0x2(%rsp),%eax
  4024e1:	88 45 02             	mov    %al,0x2(%rbp)
  4024e4:	48 8d 6d 03          	lea    0x3(%rbp),%rbp
  4024e8:	48 83 c3 01          	add    $0x1,%rbx
  4024ec:	44 89 e0             	mov    %r12d,%eax
  4024ef:	44 8d 60 ff          	lea    -0x1(%rax),%r12d
  4024f3:	85 c0                	test   %eax,%eax
  4024f5:	0f 85 4a ff ff ff    	jne    402445 <urlencode+0x32>
  4024fb:	eb 05                	jmp    402502 <urlencode+0xef>
  4024fd:	b8 ff ff ff ff       	mov    $0xffffffff,%eax
  402502:	48 8b 74 24 08       	mov    0x8(%rsp),%rsi
  402507:	64 48 33 34 25 28 00 	xor    %fs:0x28,%rsi
  40250e:	00 00 
  402510:	74 05                	je     402517 <urlencode+0x104>
  402512:	e8 d9 e7 ff ff       	callq  400cf0 <__stack_chk_fail@plt>
  402517:	48 83 c4 10          	add    $0x10,%rsp
  40251b:	5b                   	pop    %rbx
  40251c:	5d                   	pop    %rbp
  40251d:	41 5c                	pop    %r12
  40251f:	c3                   	retq   

0000000000402520 <submitr>:
  402520:	41 57                	push   %r15
  402522:	41 56                	push   %r14
  402524:	41 55                	push   %r13
  402526:	41 54                	push   %r12
  402528:	55                   	push   %rbp
  402529:	53                   	push   %rbx
  40252a:	48 81 ec 58 a0 00 00 	sub    $0xa058,%rsp
  402531:	49 89 fc             	mov    %rdi,%r12
  402534:	89 74 24 04          	mov    %esi,0x4(%rsp)
  402538:	49 89 d7             	mov    %rdx,%r15
  40253b:	49 89 ce             	mov    %rcx,%r14
  40253e:	4c 89 44 24 08       	mov    %r8,0x8(%rsp)
  402543:	4d 89 cd             	mov    %r9,%r13
  402546:	48 8b 9c 24 90 a0 00 	mov    0xa090(%rsp),%rbx
  40254d:	00 
  40254e:	64 48 8b 04 25 28 00 	mov    %fs:0x28,%rax
  402555:	00 00 
  402557:	48 89 84 24 48 a0 00 	mov    %rax,0xa048(%rsp)
  40255e:	00 
  40255f:	31 c0                	xor    %eax,%eax
  402561:	c7 44 24 1c 00 00 00 	movl   $0x0,0x1c(%rsp)
  402568:	00 
  402569:	ba 00 00 00 00       	mov    $0x0,%edx
  40256e:	be 01 00 00 00       	mov    $0x1,%esi
  402573:	bf 02 00 00 00       	mov    $0x2,%edi
  402578:	e8 13 e9 ff ff       	callq  400e90 <socket@plt>
  40257d:	85 c0                	test   %eax,%eax
  40257f:	79 4e                	jns    4025cf <submitr+0xaf>
  402581:	48 b8 45 72 72 6f 72 	movabs $0x43203a726f727245,%rax
  402588:	3a 20 43 
  40258b:	48 89 03             	mov    %rax,(%rbx)
  40258e:	48 b8 6c 69 65 6e 74 	movabs $0x6e7520746e65696c,%rax
  402595:	20 75 6e 
  402598:	48 89 43 08          	mov    %rax,0x8(%rbx)
  40259c:	48 b8 61 62 6c 65 20 	movabs $0x206f7420656c6261,%rax
  4025a3:	74 6f 20 
  4025a6:	48 89 43 10          	mov    %rax,0x10(%rbx)
  4025aa:	48 b8 63 72 65 61 74 	movabs $0x7320657461657263,%rax
  4025b1:	65 20 73 
  4025b4:	48 89 43 18          	mov    %rax,0x18(%rbx)
  4025b8:	c7 43 20 6f 63 6b 65 	movl   $0x656b636f,0x20(%rbx)
  4025bf:	66 c7 43 24 74 00    	movw   $0x74,0x24(%rbx)
  4025c5:	b8 ff ff ff ff       	mov    $0xffffffff,%eax
  4025ca:	e9 97 06 00 00       	jmpq   402c66 <submitr+0x746>
  4025cf:	89 c5                	mov    %eax,%ebp
  4025d1:	4c 89 e7             	mov    %r12,%rdi
  4025d4:	e8 97 e7 ff ff       	callq  400d70 <gethostbyname@plt>
  4025d9:	48 85 c0             	test   %rax,%rax
  4025dc:	75 67                	jne    402645 <submitr+0x125>
  4025de:	48 b8 45 72 72 6f 72 	movabs $0x44203a726f727245,%rax
  4025e5:	3a 20 44 
  4025e8:	48 89 03             	mov    %rax,(%rbx)
  4025eb:	48 b8 4e 53 20 69 73 	movabs $0x6e7520736920534e,%rax
  4025f2:	20 75 6e 
  4025f5:	48 89 43 08          	mov    %rax,0x8(%rbx)
  4025f9:	48 b8 61 62 6c 65 20 	movabs $0x206f7420656c6261,%rax
  402600:	74 6f 20 
  402603:	48 89 43 10          	mov    %rax,0x10(%rbx)
  402607:	48 b8 72 65 73 6f 6c 	movabs $0x2065766c6f736572,%rax
  40260e:	76 65 20 
  402611:	48 89 43 18          	mov    %rax,0x18(%rbx)
  402615:	48 b8 73 65 72 76 65 	movabs $0x6120726576726573,%rax
  40261c:	72 20 61 
  40261f:	48 89 43 20          	mov    %rax,0x20(%rbx)
  402623:	c7 43 28 64 64 72 65 	movl   $0x65726464,0x28(%rbx)
  40262a:	66 c7 43 2c 73 73    	movw   $0x7373,0x2c(%rbx)
  402630:	c6 43 2e 00          	movb   $0x0,0x2e(%rbx)
  402634:	89 ef                	mov    %ebp,%edi
  402636:	e8 f5 e6 ff ff       	callq  400d30 <close@plt>
  40263b:	b8 ff ff ff ff       	mov    $0xffffffff,%eax
  402640:	e9 21 06 00 00       	jmpq   402c66 <submitr+0x746>
  402645:	48 c7 44 24 20 00 00 	movq   $0x0,0x20(%rsp)
  40264c:	00 00 
  40264e:	48 c7 44 24 28 00 00 	movq   $0x0,0x28(%rsp)
  402655:	00 00 
  402657:	66 c7 44 24 20 02 00 	movw   $0x2,0x20(%rsp)
  40265e:	48 63 50 14          	movslq 0x14(%rax),%rdx
  402662:	48 8b 40 18          	mov    0x18(%rax),%rax
  402666:	48 8b 30             	mov    (%rax),%rsi
  402669:	48 8d 7c 24 24       	lea    0x24(%rsp),%rdi
  40266e:	b9 0c 00 00 00       	mov    $0xc,%ecx
  402673:	e8 08 e7 ff ff       	callq  400d80 <__memmove_chk@plt>
  402678:	0f b7 44 24 04       	movzwl 0x4(%rsp),%eax
  40267d:	66 c1 c8 08          	ror    $0x8,%ax
  402681:	66 89 44 24 22       	mov    %ax,0x22(%rsp)
  402686:	ba 10 00 00 00       	mov    $0x10,%edx
  40268b:	48 8d 74 24 20       	lea    0x20(%rsp),%rsi
  402690:	89 ef                	mov    %ebp,%edi
  402692:	e8 c9 e7 ff ff       	callq  400e60 <connect@plt>
  402697:	85 c0                	test   %eax,%eax
  402699:	79 59                	jns    4026f4 <submitr+0x1d4>
  40269b:	48 b8 45 72 72 6f 72 	movabs $0x55203a726f727245,%rax
  4026a2:	3a 20 55 
  4026a5:	48 89 03             	mov    %rax,(%rbx)
  4026a8:	48 b8 6e 61 62 6c 65 	movabs $0x6f7420656c62616e,%rax
  4026af:	20 74 6f 
  4026b2:	48 89 43 08          	mov    %rax,0x8(%rbx)
  4026b6:	48 b8 20 63 6f 6e 6e 	movabs $0x7463656e6e6f6320,%rax
  4026bd:	65 63 74 
  4026c0:	48 89 43 10          	mov    %rax,0x10(%rbx)
  4026c4:	48 b8 20 74 6f 20 74 	movabs $0x20656874206f7420,%rax
  4026cb:	68 65 20 
  4026ce:	48 89 43 18          	mov    %rax,0x18(%rbx)
  4026d2:	c7 43 20 73 65 72 76 	movl   $0x76726573,0x20(%rbx)
  4026d9:	66 c7 43 24 65 72    	movw   $0x7265,0x24(%rbx)
  4026df:	c6 43 26 00          	movb   $0x0,0x26(%rbx)
  4026e3:	89 ef                	mov    %ebp,%edi
  4026e5:	e8 46 e6 ff ff       	callq  400d30 <close@plt>
  4026ea:	b8 ff ff ff ff       	mov    $0xffffffff,%eax
  4026ef:	e9 72 05 00 00       	jmpq   402c66 <submitr+0x746>
  4026f4:	48 c7 c6 ff ff ff ff 	mov    $0xffffffffffffffff,%rsi
  4026fb:	b8 00 00 00 00       	mov    $0x0,%eax
  402700:	48 89 f1             	mov    %rsi,%rcx
  402703:	4c 89 ef             	mov    %r13,%rdi
  402706:	f2 ae                	repnz scas %es:(%rdi),%al
  402708:	48 f7 d1             	not    %rcx
  40270b:	48 89 ca             	mov    %rcx,%rdx
  40270e:	48 89 f1             	mov    %rsi,%rcx
  402711:	4c 89 ff             	mov    %r15,%rdi
  402714:	f2 ae                	repnz scas %es:(%rdi),%al
  402716:	48 f7 d1             	not    %rcx
  402719:	49 89 c8             	mov    %rcx,%r8
  40271c:	48 89 f1             	mov    %rsi,%rcx
  40271f:	4c 89 f7             	mov    %r14,%rdi
  402722:	f2 ae                	repnz scas %es:(%rdi),%al
  402724:	48 f7 d1             	not    %rcx
  402727:	4d 8d 44 08 fe       	lea    -0x2(%r8,%rcx,1),%r8
  40272c:	48 89 f1             	mov    %rsi,%rcx
  40272f:	48 8b 7c 24 08       	mov    0x8(%rsp),%rdi
  402734:	f2 ae                	repnz scas %es:(%rdi),%al
  402736:	48 89 c8             	mov    %rcx,%rax
  402739:	48 f7 d0             	not    %rax
  40273c:	49 8d 4c 00 ff       	lea    -0x1(%r8,%rax,1),%rcx
  402741:	48 8d 44 52 fd       	lea    -0x3(%rdx,%rdx,2),%rax
  402746:	48 8d 84 01 80 00 00 	lea    0x80(%rcx,%rax,1),%rax
  40274d:	00 
  40274e:	48 3d 00 20 00 00    	cmp    $0x2000,%rax
  402754:	76 72                	jbe    4027c8 <submitr+0x2a8>
  402756:	48 b8 45 72 72 6f 72 	movabs $0x52203a726f727245,%rax
  40275d:	3a 20 52 
  402760:	48 89 03             	mov    %rax,(%rbx)
  402763:	48 b8 65 73 75 6c 74 	movabs $0x747320746c757365,%rax
  40276a:	20 73 74 
  40276d:	48 89 43 08          	mov    %rax,0x8(%rbx)
  402771:	48 b8 72 69 6e 67 20 	movabs $0x6f6f7420676e6972,%rax
  402778:	74 6f 6f 
  40277b:	48 89 43 10          	mov    %rax,0x10(%rbx)
  40277f:	48 b8 20 6c 61 72 67 	movabs $0x202e656772616c20,%rax
  402786:	65 2e 20 
  402789:	48 89 43 18          	mov    %rax,0x18(%rbx)
  40278d:	48 b8 49 6e 63 72 65 	movabs $0x6573616572636e49,%rax
  402794:	61 73 65 
  402797:	48 89 43 20          	mov    %rax,0x20(%rbx)
  40279b:	48 b8 20 53 55 42 4d 	movabs $0x5254494d42555320,%rax
  4027a2:	49 54 52 
  4027a5:	48 89 43 28          	mov    %rax,0x28(%rbx)
  4027a9:	48 b8 5f 4d 41 58 42 	movabs $0x46554258414d5f,%rax
  4027b0:	55 46 00 
  4027b3:	48 89 43 30          	mov    %rax,0x30(%rbx)
  4027b7:	89 ef                	mov    %ebp,%edi
  4027b9:	e8 72 e5 ff ff       	callq  400d30 <close@plt>
  4027be:	b8 ff ff ff ff       	mov    $0xffffffff,%eax
  4027c3:	e9 9e 04 00 00       	jmpq   402c66 <submitr+0x746>
  4027c8:	48 8d b4 24 40 40 00 	lea    0x4040(%rsp),%rsi
  4027cf:	00 
  4027d0:	b9 00 04 00 00       	mov    $0x400,%ecx
  4027d5:	b8 00 00 00 00       	mov    $0x0,%eax
  4027da:	48 89 f7             	mov    %rsi,%rdi
  4027dd:	f3 48 ab             	rep stos %rax,%es:(%rdi)
  4027e0:	4c 89 ef             	mov    %r13,%rdi
  4027e3:	e8 2b fc ff ff       	callq  402413 <urlencode>
  4027e8:	85 c0                	test   %eax,%eax
  4027ea:	0f 89 8a 00 00 00    	jns    40287a <submitr+0x35a>
  4027f0:	48 b8 45 72 72 6f 72 	movabs $0x52203a726f727245,%rax
  4027f7:	3a 20 52 
  4027fa:	48 89 03             	mov    %rax,(%rbx)
  4027fd:	48 b8 65 73 75 6c 74 	movabs $0x747320746c757365,%rax
  402804:	20 73 74 
  402807:	48 89 43 08          	mov    %rax,0x8(%rbx)
  40280b:	48 b8 72 69 6e 67 20 	movabs $0x6e6f6320676e6972,%rax
  402812:	63 6f 6e 
  402815:	48 89 43 10          	mov    %rax,0x10(%rbx)
  402819:	48 b8 74 61 69 6e 73 	movabs $0x6e6120736e696174,%rax
  402820:	20 61 6e 
  402823:	48 89 43 18          	mov    %rax,0x18(%rbx)
  402827:	48 b8 20 69 6c 6c 65 	movabs $0x6c6167656c6c6920,%rax
  40282e:	67 61 6c 
  402831:	48 89 43 20          	mov    %rax,0x20(%rbx)
  402835:	48 b8 20 6f 72 20 75 	movabs $0x72706e7520726f20,%rax
  40283c:	6e 70 72 
  40283f:	48 89 43 28          	mov    %rax,0x28(%rbx)
  402843:	48 b8 69 6e 74 61 62 	movabs $0x20656c6261746e69,%rax
  40284a:	6c 65 20 
  40284d:	48 89 43 30          	mov    %rax,0x30(%rbx)
  402851:	48 b8 63 68 61 72 61 	movabs $0x6574636172616863,%rax
  402858:	63 74 65 
  40285b:	48 89 43 38          	mov    %rax,0x38(%rbx)
  40285f:	66 c7 43 40 72 2e    	movw   $0x2e72,0x40(%rbx)
  402865:	c6 43 42 00          	movb   $0x0,0x42(%rbx)
  402869:	89 ef                	mov    %ebp,%edi
  40286b:	e8 c0 e4 ff ff       	callq  400d30 <close@plt>
  402870:	b8 ff ff ff ff       	mov    $0xffffffff,%eax
  402875:	e9 ec 03 00 00       	jmpq   402c66 <submitr+0x746>
  40287a:	4c 8d ac 24 40 20 00 	lea    0x2040(%rsp),%r13
  402881:	00 
  402882:	41 54                	push   %r12
  402884:	48 8d 84 24 48 40 00 	lea    0x4048(%rsp),%rax
  40288b:	00 
  40288c:	50                   	push   %rax
  40288d:	4d 89 f9             	mov    %r15,%r9
  402890:	4d 89 f0             	mov    %r14,%r8
  402893:	b9 68 38 40 00       	mov    $0x403868,%ecx
  402898:	ba 00 20 00 00       	mov    $0x2000,%edx
  40289d:	be 01 00 00 00       	mov    $0x1,%esi
  4028a2:	4c 89 ef             	mov    %r13,%rdi
  4028a5:	b8 00 00 00 00       	mov    $0x0,%eax
  4028aa:	e8 d1 e5 ff ff       	callq  400e80 <__sprintf_chk@plt>
  4028af:	b8 00 00 00 00       	mov    $0x0,%eax
  4028b4:	48 c7 c1 ff ff ff ff 	mov    $0xffffffffffffffff,%rcx
  4028bb:	4c 89 ef             	mov    %r13,%rdi
  4028be:	f2 ae                	repnz scas %es:(%rdi),%al
  4028c0:	48 f7 d1             	not    %rcx
  4028c3:	48 8d 51 ff          	lea    -0x1(%rcx),%rdx
  4028c7:	4c 89 ee             	mov    %r13,%rsi
  4028ca:	89 ef                	mov    %ebp,%edi
  4028cc:	e8 b1 f9 ff ff       	callq  402282 <rio_writen>
  4028d1:	48 83 c4 10          	add    $0x10,%rsp
  4028d5:	48 85 c0             	test   %rax,%rax
  4028d8:	79 6e                	jns    402948 <submitr+0x428>
  4028da:	48 b8 45 72 72 6f 72 	movabs $0x43203a726f727245,%rax
  4028e1:	3a 20 43 
  4028e4:	48 89 03             	mov    %rax,(%rbx)
  4028e7:	48 b8 6c 69 65 6e 74 	movabs $0x6e7520746e65696c,%rax
  4028ee:	20 75 6e 
  4028f1:	48 89 43 08          	mov    %rax,0x8(%rbx)
  4028f5:	48 b8 61 62 6c 65 20 	movabs $0x206f7420656c6261,%rax
  4028fc:	74 6f 20 
  4028ff:	48 89 43 10          	mov    %rax,0x10(%rbx)
  402903:	48 b8 77 72 69 74 65 	movabs $0x6f74206574697277,%rax
  40290a:	20 74 6f 
  40290d:	48 89 43 18          	mov    %rax,0x18(%rbx)
  402911:	48 b8 20 74 68 65 20 	movabs $0x7365722065687420,%rax
  402918:	72 65 73 
  40291b:	48 89 43 20          	mov    %rax,0x20(%rbx)
  40291f:	48 b8 75 6c 74 20 73 	movabs $0x7672657320746c75,%rax
  402926:	65 72 76 
  402929:	48 89 43 28          	mov    %rax,0x28(%rbx)
  40292d:	66 c7 43 30 65 72    	movw   $0x7265,0x30(%rbx)
  402933:	c6 43 32 00          	movb   $0x0,0x32(%rbx)
  402937:	89 ef                	mov    %ebp,%edi
  402939:	e8 f2 e3 ff ff       	callq  400d30 <close@plt>
  40293e:	b8 ff ff ff ff       	mov    $0xffffffff,%eax
  402943:	e9 1e 03 00 00       	jmpq   402c66 <submitr+0x746>
  402948:	89 ee                	mov    %ebp,%esi
  40294a:	48 8d 7c 24 30       	lea    0x30(%rsp),%rdi
  40294f:	e8 ee f8 ff ff       	callq  402242 <rio_readinitb>
  402954:	ba 00 20 00 00       	mov    $0x2000,%edx
  402959:	48 8d b4 24 40 20 00 	lea    0x2040(%rsp),%rsi
  402960:	00 
  402961:	48 8d 7c 24 30       	lea    0x30(%rsp),%rdi
  402966:	e8 fe f9 ff ff       	callq  402369 <rio_readlineb>
  40296b:	48 85 c0             	test   %rax,%rax
  40296e:	7f 7d                	jg     4029ed <submitr+0x4cd>
  402970:	48 b8 45 72 72 6f 72 	movabs $0x43203a726f727245,%rax
  402977:	3a 20 43 
  40297a:	48 89 03             	mov    %rax,(%rbx)
  40297d:	48 b8 6c 69 65 6e 74 	movabs $0x6e7520746e65696c,%rax
  402984:	20 75 6e 
  402987:	48 89 43 08          	mov    %rax,0x8(%rbx)
  40298b:	48 b8 61 62 6c 65 20 	movabs $0x206f7420656c6261,%rax
  402992:	74 6f 20 
  402995:	48 89 43 10          	mov    %rax,0x10(%rbx)
  402999:	48 b8 72 65 61 64 20 	movabs $0x7269662064616572,%rax
  4029a0:	66 69 72 
  4029a3:	48 89 43 18          	mov    %rax,0x18(%rbx)
  4029a7:	48 b8 73 74 20 68 65 	movabs $0x6564616568207473,%rax
  4029ae:	61 64 65 
  4029b1:	48 89 43 20          	mov    %rax,0x20(%rbx)
  4029b5:	48 b8 72 20 66 72 6f 	movabs $0x72206d6f72662072,%rax
  4029bc:	6d 20 72 
  4029bf:	48 89 43 28          	mov    %rax,0x28(%rbx)
  4029c3:	48 b8 65 73 75 6c 74 	movabs $0x657320746c757365,%rax
  4029ca:	20 73 65 
  4029cd:	48 89 43 30          	mov    %rax,0x30(%rbx)
  4029d1:	c7 43 38 72 76 65 72 	movl   $0x72657672,0x38(%rbx)
  4029d8:	c6 43 3c 00          	movb   $0x0,0x3c(%rbx)
  4029dc:	89 ef                	mov    %ebp,%edi
  4029de:	e8 4d e3 ff ff       	callq  400d30 <close@plt>
  4029e3:	b8 ff ff ff ff       	mov    $0xffffffff,%eax
  4029e8:	e9 79 02 00 00       	jmpq   402c66 <submitr+0x746>
  4029ed:	4c 8d 84 24 40 80 00 	lea    0x8040(%rsp),%r8
  4029f4:	00 
  4029f5:	48 8d 4c 24 1c       	lea    0x1c(%rsp),%rcx
  4029fa:	48 8d 94 24 40 60 00 	lea    0x6040(%rsp),%rdx
  402a01:	00 
  402a02:	be df 38 40 00       	mov    $0x4038df,%esi
  402a07:	48 8d bc 24 40 20 00 	lea    0x2040(%rsp),%rdi
  402a0e:	00 
  402a0f:	b8 00 00 00 00       	mov    $0x0,%eax
  402a14:	e8 c7 e3 ff ff       	callq  400de0 <__isoc99_sscanf@plt>
  402a19:	e9 95 00 00 00       	jmpq   402ab3 <submitr+0x593>
  402a1e:	ba 00 20 00 00       	mov    $0x2000,%edx
  402a23:	48 8d b4 24 40 20 00 	lea    0x2040(%rsp),%rsi
  402a2a:	00 
  402a2b:	48 8d 7c 24 30       	lea    0x30(%rsp),%rdi
  402a30:	e8 34 f9 ff ff       	callq  402369 <rio_readlineb>
  402a35:	48 85 c0             	test   %rax,%rax
  402a38:	7f 79                	jg     402ab3 <submitr+0x593>
  402a3a:	48 b8 45 72 72 6f 72 	movabs $0x43203a726f727245,%rax
  402a41:	3a 20 43 
  402a44:	48 89 03             	mov    %rax,(%rbx)
  402a47:	48 b8 6c 69 65 6e 74 	movabs $0x6e7520746e65696c,%rax
  402a4e:	20 75 6e 
  402a51:	48 89 43 08          	mov    %rax,0x8(%rbx)
  402a55:	48 b8 61 62 6c 65 20 	movabs $0x206f7420656c6261,%rax
  402a5c:	74 6f 20 
  402a5f:	48 89 43 10          	mov    %rax,0x10(%rbx)
  402a63:	48 b8 72 65 61 64 20 	movabs $0x6165682064616572,%rax
  402a6a:	68 65 61 
  402a6d:	48 89 43 18          	mov    %rax,0x18(%rbx)
  402a71:	48 b8 64 65 72 73 20 	movabs $0x6f72662073726564,%rax
  402a78:	66 72 6f 
  402a7b:	48 89 43 20          	mov    %rax,0x20(%rbx)
  402a7f:	48 b8 6d 20 74 68 65 	movabs $0x657220656874206d,%rax
  402a86:	20 72 65 
  402a89:	48 89 43 28          	mov    %rax,0x28(%rbx)
  402a8d:	48 b8 73 75 6c 74 20 	movabs $0x72657320746c7573,%rax
  402a94:	73 65 72 
  402a97:	48 89 43 30          	mov    %rax,0x30(%rbx)
  402a9b:	c7 43 38 76 65 72 00 	movl   $0x726576,0x38(%rbx)
  402aa2:	89 ef                	mov    %ebp,%edi
  402aa4:	e8 87 e2 ff ff       	callq  400d30 <close@plt>
  402aa9:	b8 ff ff ff ff       	mov    $0xffffffff,%eax
  402aae:	e9 b3 01 00 00       	jmpq   402c66 <submitr+0x746>
  402ab3:	0f b6 94 24 40 20 00 	movzbl 0x2040(%rsp),%edx
  402aba:	00 
  402abb:	b8 0d 00 00 00       	mov    $0xd,%eax
  402ac0:	29 d0                	sub    %edx,%eax
  402ac2:	75 1b                	jne    402adf <submitr+0x5bf>
  402ac4:	0f b6 94 24 41 20 00 	movzbl 0x2041(%rsp),%edx
  402acb:	00 
  402acc:	b8 0a 00 00 00       	mov    $0xa,%eax
  402ad1:	29 d0                	sub    %edx,%eax
  402ad3:	75 0a                	jne    402adf <submitr+0x5bf>
  402ad5:	0f b6 84 24 42 20 00 	movzbl 0x2042(%rsp),%eax
  402adc:	00 
  402add:	f7 d8                	neg    %eax
  402adf:	85 c0                	test   %eax,%eax
  402ae1:	0f 85 37 ff ff ff    	jne    402a1e <submitr+0x4fe>
  402ae7:	ba 00 20 00 00       	mov    $0x2000,%edx
  402aec:	48 8d b4 24 40 20 00 	lea    0x2040(%rsp),%rsi
  402af3:	00 
  402af4:	48 8d 7c 24 30       	lea    0x30(%rsp),%rdi
  402af9:	e8 6b f8 ff ff       	callq  402369 <rio_readlineb>
  402afe:	48 85 c0             	test   %rax,%rax
  402b01:	0f 8f 83 00 00 00    	jg     402b8a <submitr+0x66a>
  402b07:	48 b8 45 72 72 6f 72 	movabs $0x43203a726f727245,%rax
  402b0e:	3a 20 43 
  402b11:	48 89 03             	mov    %rax,(%rbx)
  402b14:	48 b8 6c 69 65 6e 74 	movabs $0x6e7520746e65696c,%rax
  402b1b:	20 75 6e 
  402b1e:	48 89 43 08          	mov    %rax,0x8(%rbx)
  402b22:	48 b8 61 62 6c 65 20 	movabs $0x206f7420656c6261,%rax
  402b29:	74 6f 20 
  402b2c:	48 89 43 10          	mov    %rax,0x10(%rbx)
  402b30:	48 b8 72 65 61 64 20 	movabs $0x6174732064616572,%rax
  402b37:	73 74 61 
  402b3a:	48 89 43 18          	mov    %rax,0x18(%rbx)
  402b3e:	48 b8 74 75 73 20 6d 	movabs $0x7373656d20737574,%rax
  402b45:	65 73 73 
  402b48:	48 89 43 20          	mov    %rax,0x20(%rbx)
  402b4c:	48 b8 61 67 65 20 66 	movabs $0x6d6f726620656761,%rax
  402b53:	72 6f 6d 
  402b56:	48 89 43 28          	mov    %rax,0x28(%rbx)
  402b5a:	48 b8 20 72 65 73 75 	movabs $0x20746c7573657220,%rax
  402b61:	6c 74 20 
  402b64:	48 89 43 30          	mov    %rax,0x30(%rbx)
  402b68:	c7 43 38 73 65 72 76 	movl   $0x76726573,0x38(%rbx)
  402b6f:	66 c7 43 3c 65 72    	movw   $0x7265,0x3c(%rbx)
  402b75:	c6 43 3e 00          	movb   $0x0,0x3e(%rbx)
  402b79:	89 ef                	mov    %ebp,%edi
  402b7b:	e8 b0 e1 ff ff       	callq  400d30 <close@plt>
  402b80:	b8 ff ff ff ff       	mov    $0xffffffff,%eax
  402b85:	e9 dc 00 00 00       	jmpq   402c66 <submitr+0x746>
  402b8a:	44 8b 44 24 1c       	mov    0x1c(%rsp),%r8d
  402b8f:	41 81 f8 c8 00 00 00 	cmp    $0xc8,%r8d
  402b96:	74 37                	je     402bcf <submitr+0x6af>
  402b98:	4c 8d 8c 24 40 80 00 	lea    0x8040(%rsp),%r9
  402b9f:	00 
  402ba0:	b9 a8 38 40 00       	mov    $0x4038a8,%ecx
  402ba5:	48 c7 c2 ff ff ff ff 	mov    $0xffffffffffffffff,%rdx
  402bac:	be 01 00 00 00       	mov    $0x1,%esi
  402bb1:	48 89 df             	mov    %rbx,%rdi
  402bb4:	b8 00 00 00 00       	mov    $0x0,%eax
  402bb9:	e8 c2 e2 ff ff       	callq  400e80 <__sprintf_chk@plt>
  402bbe:	89 ef                	mov    %ebp,%edi
  402bc0:	e8 6b e1 ff ff       	callq  400d30 <close@plt>
  402bc5:	b8 ff ff ff ff       	mov    $0xffffffff,%eax
  402bca:	e9 97 00 00 00       	jmpq   402c66 <submitr+0x746>
  402bcf:	48 8d b4 24 40 20 00 	lea    0x2040(%rsp),%rsi
  402bd6:	00 
  402bd7:	48 89 df             	mov    %rbx,%rdi
  402bda:	e8 e1 e0 ff ff       	callq  400cc0 <strcpy@plt>
  402bdf:	89 ef                	mov    %ebp,%edi
  402be1:	e8 4a e1 ff ff       	callq  400d30 <close@plt>
  402be6:	0f b6 03             	movzbl (%rbx),%eax
  402be9:	ba 4f 00 00 00       	mov    $0x4f,%edx
  402bee:	29 c2                	sub    %eax,%edx
  402bf0:	75 22                	jne    402c14 <submitr+0x6f4>
  402bf2:	0f b6 4b 01          	movzbl 0x1(%rbx),%ecx
  402bf6:	b8 4b 00 00 00       	mov    $0x4b,%eax
  402bfb:	29 c8                	sub    %ecx,%eax
  402bfd:	75 17                	jne    402c16 <submitr+0x6f6>
  402bff:	0f b6 4b 02          	movzbl 0x2(%rbx),%ecx
  402c03:	b8 0a 00 00 00       	mov    $0xa,%eax
  402c08:	29 c8                	sub    %ecx,%eax
  402c0a:	75 0a                	jne    402c16 <submitr+0x6f6>
  402c0c:	0f b6 43 03          	movzbl 0x3(%rbx),%eax
  402c10:	f7 d8                	neg    %eax
  402c12:	eb 02                	jmp    402c16 <submitr+0x6f6>
  402c14:	89 d0                	mov    %edx,%eax
  402c16:	85 c0                	test   %eax,%eax
  402c18:	74 40                	je     402c5a <submitr+0x73a>
  402c1a:	bf f0 38 40 00       	mov    $0x4038f0,%edi
  402c1f:	b9 05 00 00 00       	mov    $0x5,%ecx
  402c24:	48 89 de             	mov    %rbx,%rsi
  402c27:	f3 a6                	repz cmpsb %es:(%rdi),%ds:(%rsi)
  402c29:	0f 97 c0             	seta   %al
  402c2c:	0f 92 c1             	setb   %cl
  402c2f:	29 c8                	sub    %ecx,%eax
  402c31:	0f be c0             	movsbl %al,%eax
  402c34:	85 c0                	test   %eax,%eax
  402c36:	74 2e                	je     402c66 <submitr+0x746>
  402c38:	85 d2                	test   %edx,%edx
  402c3a:	75 13                	jne    402c4f <submitr+0x72f>
  402c3c:	0f b6 43 01          	movzbl 0x1(%rbx),%eax
  402c40:	ba 4b 00 00 00       	mov    $0x4b,%edx
  402c45:	29 c2                	sub    %eax,%edx
  402c47:	75 06                	jne    402c4f <submitr+0x72f>
  402c49:	0f b6 53 02          	movzbl 0x2(%rbx),%edx
  402c4d:	f7 da                	neg    %edx
  402c4f:	85 d2                	test   %edx,%edx
  402c51:	75 0e                	jne    402c61 <submitr+0x741>
  402c53:	b8 00 00 00 00       	mov    $0x0,%eax
  402c58:	eb 0c                	jmp    402c66 <submitr+0x746>
  402c5a:	b8 00 00 00 00       	mov    $0x0,%eax
  402c5f:	eb 05                	jmp    402c66 <submitr+0x746>
  402c61:	b8 ff ff ff ff       	mov    $0xffffffff,%eax
  402c66:	48 8b 9c 24 48 a0 00 	mov    0xa048(%rsp),%rbx
  402c6d:	00 
  402c6e:	64 48 33 1c 25 28 00 	xor    %fs:0x28,%rbx
  402c75:	00 00 
  402c77:	74 05                	je     402c7e <submitr+0x75e>
  402c79:	e8 72 e0 ff ff       	callq  400cf0 <__stack_chk_fail@plt>
  402c7e:	48 81 c4 58 a0 00 00 	add    $0xa058,%rsp
  402c85:	5b                   	pop    %rbx
  402c86:	5d                   	pop    %rbp
  402c87:	41 5c                	pop    %r12
  402c89:	41 5d                	pop    %r13
  402c8b:	41 5e                	pop    %r14
  402c8d:	41 5f                	pop    %r15
  402c8f:	c3                   	retq   

0000000000402c90 <init_timeout>:
  402c90:	85 ff                	test   %edi,%edi
  402c92:	74 23                	je     402cb7 <init_timeout+0x27>
  402c94:	53                   	push   %rbx
  402c95:	89 fb                	mov    %edi,%ebx
  402c97:	85 ff                	test   %edi,%edi
  402c99:	79 05                	jns    402ca0 <init_timeout+0x10>
  402c9b:	bb 00 00 00 00       	mov    $0x0,%ebx
  402ca0:	be 54 22 40 00       	mov    $0x402254,%esi
  402ca5:	bf 0e 00 00 00       	mov    $0xe,%edi
  402caa:	e8 b1 e0 ff ff       	callq  400d60 <signal@plt>
  402caf:	89 df                	mov    %ebx,%edi
  402cb1:	e8 6a e0 ff ff       	callq  400d20 <alarm@plt>
  402cb6:	5b                   	pop    %rbx
  402cb7:	f3 c3                	repz retq 

0000000000402cb9 <init_driver>:
  402cb9:	55                   	push   %rbp
  402cba:	53                   	push   %rbx
  402cbb:	48 83 ec 28          	sub    $0x28,%rsp
  402cbf:	48 89 fd             	mov    %rdi,%rbp
  402cc2:	64 48 8b 04 25 28 00 	mov    %fs:0x28,%rax
  402cc9:	00 00 
  402ccb:	48 89 44 24 18       	mov    %rax,0x18(%rsp)
  402cd0:	31 c0                	xor    %eax,%eax
  402cd2:	be 01 00 00 00       	mov    $0x1,%esi
  402cd7:	bf 0d 00 00 00       	mov    $0xd,%edi
  402cdc:	e8 7f e0 ff ff       	callq  400d60 <signal@plt>
  402ce1:	be 01 00 00 00       	mov    $0x1,%esi
  402ce6:	bf 1d 00 00 00       	mov    $0x1d,%edi
  402ceb:	e8 70 e0 ff ff       	callq  400d60 <signal@plt>
  402cf0:	be 01 00 00 00       	mov    $0x1,%esi
  402cf5:	bf 1d 00 00 00       	mov    $0x1d,%edi
  402cfa:	e8 61 e0 ff ff       	callq  400d60 <signal@plt>
  402cff:	ba 00 00 00 00       	mov    $0x0,%edx
  402d04:	be 01 00 00 00       	mov    $0x1,%esi
  402d09:	bf 02 00 00 00       	mov    $0x2,%edi
  402d0e:	e8 7d e1 ff ff       	callq  400e90 <socket@plt>
  402d13:	85 c0                	test   %eax,%eax
  402d15:	79 4f                	jns    402d66 <init_driver+0xad>
  402d17:	48 b8 45 72 72 6f 72 	movabs $0x43203a726f727245,%rax
  402d1e:	3a 20 43 
  402d21:	48 89 45 00          	mov    %rax,0x0(%rbp)
  402d25:	48 b8 6c 69 65 6e 74 	movabs $0x6e7520746e65696c,%rax
  402d2c:	20 75 6e 
  402d2f:	48 89 45 08          	mov    %rax,0x8(%rbp)
  402d33:	48 b8 61 62 6c 65 20 	movabs $0x206f7420656c6261,%rax
  402d3a:	74 6f 20 
  402d3d:	48 89 45 10          	mov    %rax,0x10(%rbp)
  402d41:	48 b8 63 72 65 61 74 	movabs $0x7320657461657263,%rax
  402d48:	65 20 73 
  402d4b:	48 89 45 18          	mov    %rax,0x18(%rbp)
  402d4f:	c7 45 20 6f 63 6b 65 	movl   $0x656b636f,0x20(%rbp)
  402d56:	66 c7 45 24 74 00    	movw   $0x74,0x24(%rbp)
  402d5c:	b8 ff ff ff ff       	mov    $0xffffffff,%eax
  402d61:	e9 2a 01 00 00       	jmpq   402e90 <init_driver+0x1d7>
  402d66:	89 c3                	mov    %eax,%ebx
  402d68:	bf f5 38 40 00       	mov    $0x4038f5,%edi
  402d6d:	e8 fe df ff ff       	callq  400d70 <gethostbyname@plt>
  402d72:	48 85 c0             	test   %rax,%rax
  402d75:	75 68                	jne    402ddf <init_driver+0x126>
  402d77:	48 b8 45 72 72 6f 72 	movabs $0x44203a726f727245,%rax
  402d7e:	3a 20 44 
  402d81:	48 89 45 00          	mov    %rax,0x0(%rbp)
  402d85:	48 b8 4e 53 20 69 73 	movabs $0x6e7520736920534e,%rax
  402d8c:	20 75 6e 
  402d8f:	48 89 45 08          	mov    %rax,0x8(%rbp)
  402d93:	48 b8 61 62 6c 65 20 	movabs $0x206f7420656c6261,%rax
  402d9a:	74 6f 20 
  402d9d:	48 89 45 10          	mov    %rax,0x10(%rbp)
  402da1:	48 b8 72 65 73 6f 6c 	movabs $0x2065766c6f736572,%rax
  402da8:	76 65 20 
  402dab:	48 89 45 18          	mov    %rax,0x18(%rbp)
  402daf:	48 b8 73 65 72 76 65 	movabs $0x6120726576726573,%rax
  402db6:	72 20 61 
  402db9:	48 89 45 20          	mov    %rax,0x20(%rbp)
  402dbd:	c7 45 28 64 64 72 65 	movl   $0x65726464,0x28(%rbp)
  402dc4:	66 c7 45 2c 73 73    	movw   $0x7373,0x2c(%rbp)
  402dca:	c6 45 2e 00          	movb   $0x0,0x2e(%rbp)
  402dce:	89 df                	mov    %ebx,%edi
  402dd0:	e8 5b df ff ff       	callq  400d30 <close@plt>
  402dd5:	b8 ff ff ff ff       	mov    $0xffffffff,%eax
  402dda:	e9 b1 00 00 00       	jmpq   402e90 <init_driver+0x1d7>
  402ddf:	48 c7 04 24 00 00 00 	movq   $0x0,(%rsp)
  402de6:	00 
  402de7:	48 c7 44 24 08 00 00 	movq   $0x0,0x8(%rsp)
  402dee:	00 00 
  402df0:	66 c7 04 24 02 00    	movw   $0x2,(%rsp)
  402df6:	48 63 50 14          	movslq 0x14(%rax),%rdx
  402dfa:	48 8b 40 18          	mov    0x18(%rax),%rax
  402dfe:	48 8b 30             	mov    (%rax),%rsi
  402e01:	48 8d 7c 24 04       	lea    0x4(%rsp),%rdi
  402e06:	b9 0c 00 00 00       	mov    $0xc,%ecx
  402e0b:	e8 70 df ff ff       	callq  400d80 <__memmove_chk@plt>
  402e10:	66 c7 44 24 02 3c 9a 	movw   $0x9a3c,0x2(%rsp)
  402e17:	ba 10 00 00 00       	mov    $0x10,%edx
  402e1c:	48 89 e6             	mov    %rsp,%rsi
  402e1f:	89 df                	mov    %ebx,%edi
  402e21:	e8 3a e0 ff ff       	callq  400e60 <connect@plt>
  402e26:	85 c0                	test   %eax,%eax
  402e28:	79 50                	jns    402e7a <init_driver+0x1c1>
  402e2a:	48 b8 45 72 72 6f 72 	movabs $0x55203a726f727245,%rax
  402e31:	3a 20 55 
  402e34:	48 89 45 00          	mov    %rax,0x0(%rbp)
  402e38:	48 b8 6e 61 62 6c 65 	movabs $0x6f7420656c62616e,%rax
  402e3f:	20 74 6f 
  402e42:	48 89 45 08          	mov    %rax,0x8(%rbp)
  402e46:	48 b8 20 63 6f 6e 6e 	movabs $0x7463656e6e6f6320,%rax
  402e4d:	65 63 74 
  402e50:	48 89 45 10          	mov    %rax,0x10(%rbp)
  402e54:	48 b8 20 74 6f 20 73 	movabs $0x76726573206f7420,%rax
  402e5b:	65 72 76 
  402e5e:	48 89 45 18          	mov    %rax,0x18(%rbp)
  402e62:	66 c7 45 20 65 72    	movw   $0x7265,0x20(%rbp)
  402e68:	c6 45 22 00          	movb   $0x0,0x22(%rbp)
  402e6c:	89 df                	mov    %ebx,%edi
  402e6e:	e8 bd de ff ff       	callq  400d30 <close@plt>
  402e73:	b8 ff ff ff ff       	mov    $0xffffffff,%eax
  402e78:	eb 16                	jmp    402e90 <init_driver+0x1d7>
  402e7a:	89 df                	mov    %ebx,%edi
  402e7c:	e8 af de ff ff       	callq  400d30 <close@plt>
  402e81:	66 c7 45 00 4f 4b    	movw   $0x4b4f,0x0(%rbp)
  402e87:	c6 45 02 00          	movb   $0x0,0x2(%rbp)
  402e8b:	b8 00 00 00 00       	mov    $0x0,%eax
  402e90:	48 8b 4c 24 18       	mov    0x18(%rsp),%rcx
  402e95:	64 48 33 0c 25 28 00 	xor    %fs:0x28,%rcx
  402e9c:	00 00 
  402e9e:	74 05                	je     402ea5 <init_driver+0x1ec>
  402ea0:	e8 4b de ff ff       	callq  400cf0 <__stack_chk_fail@plt>
  402ea5:	48 83 c4 28          	add    $0x28,%rsp
  402ea9:	5b                   	pop    %rbx
  402eaa:	5d                   	pop    %rbp
  402eab:	c3                   	retq   

0000000000402eac <driver_post>:
  402eac:	53                   	push   %rbx
  402ead:	4c 89 cb             	mov    %r9,%rbx
  402eb0:	45 85 c0             	test   %r8d,%r8d
  402eb3:	74 27                	je     402edc <driver_post+0x30>
  402eb5:	48 89 ca             	mov    %rcx,%rdx
  402eb8:	be 03 39 40 00       	mov    $0x403903,%esi
  402ebd:	bf 01 00 00 00       	mov    $0x1,%edi
  402ec2:	b8 00 00 00 00       	mov    $0x0,%eax
  402ec7:	e8 34 df ff ff       	callq  400e00 <__printf_chk@plt>
  402ecc:	66 c7 03 4f 4b       	movw   $0x4b4f,(%rbx)
  402ed1:	c6 43 02 00          	movb   $0x0,0x2(%rbx)
  402ed5:	b8 00 00 00 00       	mov    $0x0,%eax
  402eda:	eb 3f                	jmp    402f1b <driver_post+0x6f>
  402edc:	48 85 ff             	test   %rdi,%rdi
  402edf:	74 2c                	je     402f0d <driver_post+0x61>
  402ee1:	80 3f 00             	cmpb   $0x0,(%rdi)
  402ee4:	74 27                	je     402f0d <driver_post+0x61>
  402ee6:	48 83 ec 08          	sub    $0x8,%rsp
  402eea:	41 51                	push   %r9
  402eec:	49 89 c9             	mov    %rcx,%r9
  402eef:	49 89 d0             	mov    %rdx,%r8
  402ef2:	48 89 f9             	mov    %rdi,%rcx
  402ef5:	48 89 f2             	mov    %rsi,%rdx
  402ef8:	be 9a 3c 00 00       	mov    $0x3c9a,%esi
  402efd:	bf f5 38 40 00       	mov    $0x4038f5,%edi
  402f02:	e8 19 f6 ff ff       	callq  402520 <submitr>
  402f07:	48 83 c4 10          	add    $0x10,%rsp
  402f0b:	eb 0e                	jmp    402f1b <driver_post+0x6f>
  402f0d:	66 c7 03 4f 4b       	movw   $0x4b4f,(%rbx)
  402f12:	c6 43 02 00          	movb   $0x0,0x2(%rbx)
  402f16:	b8 00 00 00 00       	mov    $0x0,%eax
  402f1b:	5b                   	pop    %rbx
  402f1c:	c3                   	retq   

0000000000402f1d <check>:
  402f1d:	89 f8                	mov    %edi,%eax
  402f1f:	c1 e8 1c             	shr    $0x1c,%eax
  402f22:	85 c0                	test   %eax,%eax
  402f24:	74 1d                	je     402f43 <check+0x26>
  402f26:	b9 00 00 00 00       	mov    $0x0,%ecx
  402f2b:	eb 0b                	jmp    402f38 <check+0x1b>
  402f2d:	89 f8                	mov    %edi,%eax
  402f2f:	d3 e8                	shr    %cl,%eax
  402f31:	3c 0a                	cmp    $0xa,%al
  402f33:	74 14                	je     402f49 <check+0x2c>
  402f35:	83 c1 08             	add    $0x8,%ecx
  402f38:	83 f9 1f             	cmp    $0x1f,%ecx
  402f3b:	7e f0                	jle    402f2d <check+0x10>
  402f3d:	b8 01 00 00 00       	mov    $0x1,%eax
  402f42:	c3                   	retq   
  402f43:	b8 00 00 00 00       	mov    $0x0,%eax
  402f48:	c3                   	retq   
  402f49:	b8 00 00 00 00       	mov    $0x0,%eax
  402f4e:	c3                   	retq   

0000000000402f4f <gencookie>:
  402f4f:	53                   	push   %rbx
  402f50:	83 c7 01             	add    $0x1,%edi
  402f53:	e8 48 dd ff ff       	callq  400ca0 <srandom@plt>
  402f58:	e8 63 de ff ff       	callq  400dc0 <random@plt>
  402f5d:	89 c3                	mov    %eax,%ebx
  402f5f:	89 c7                	mov    %eax,%edi
  402f61:	e8 b7 ff ff ff       	callq  402f1d <check>
  402f66:	85 c0                	test   %eax,%eax
  402f68:	74 ee                	je     402f58 <gencookie+0x9>
  402f6a:	89 d8                	mov    %ebx,%eax
  402f6c:	5b                   	pop    %rbx
  402f6d:	c3                   	retq   
  402f6e:	66 90                	xchg   %ax,%ax

0000000000402f70 <__libc_csu_init>:
  402f70:	41 57                	push   %r15
  402f72:	41 56                	push   %r14
  402f74:	41 89 ff             	mov    %edi,%r15d
  402f77:	41 55                	push   %r13
  402f79:	41 54                	push   %r12
  402f7b:	4c 8d 25 8e 1e 20 00 	lea    0x201e8e(%rip),%r12        # 604e10 <__frame_dummy_init_array_entry>
  402f82:	55                   	push   %rbp
  402f83:	48 8d 2d 8e 1e 20 00 	lea    0x201e8e(%rip),%rbp        # 604e18 <__do_global_dtors_aux_fini_array_entry>
  402f8a:	53                   	push   %rbx
  402f8b:	49 89 f6             	mov    %rsi,%r14
  402f8e:	49 89 d5             	mov    %rdx,%r13
  402f91:	4c 29 e5             	sub    %r12,%rbp
  402f94:	48 83 ec 08          	sub    $0x8,%rsp
  402f98:	48 c1 fd 03          	sar    $0x3,%rbp
  402f9c:	e8 a7 dc ff ff       	callq  400c48 <_init>
  402fa1:	48 85 ed             	test   %rbp,%rbp
  402fa4:	74 20                	je     402fc6 <__libc_csu_init+0x56>
  402fa6:	31 db                	xor    %ebx,%ebx
  402fa8:	0f 1f 84 00 00 00 00 	nopl   0x0(%rax,%rax,1)
  402faf:	00 
  402fb0:	4c 89 ea             	mov    %r13,%rdx
  402fb3:	4c 89 f6             	mov    %r14,%rsi
  402fb6:	44 89 ff             	mov    %r15d,%edi
  402fb9:	41 ff 14 dc          	callq  *(%r12,%rbx,8)
  402fbd:	48 83 c3 01          	add    $0x1,%rbx
  402fc1:	48 39 eb             	cmp    %rbp,%rbx
  402fc4:	75 ea                	jne    402fb0 <__libc_csu_init+0x40>
  402fc6:	48 83 c4 08          	add    $0x8,%rsp
  402fca:	5b                   	pop    %rbx
  402fcb:	5d                   	pop    %rbp
  402fcc:	41 5c                	pop    %r12
  402fce:	41 5d                	pop    %r13
  402fd0:	41 5e                	pop    %r14
  402fd2:	41 5f                	pop    %r15
  402fd4:	c3                   	retq   
  402fd5:	90                   	nop
  402fd6:	66 2e 0f 1f 84 00 00 	nopw   %cs:0x0(%rax,%rax,1)
  402fdd:	00 00 00 

0000000000402fe0 <__libc_csu_fini>:
  402fe0:	f3 c3                	repz retq 

Disassembly of section .fini:

0000000000402fe4 <_fini>:
  402fe4:	48 83 ec 08          	sub    $0x8,%rsp
  402fe8:	48 83 c4 08          	add    $0x8,%rsp
  402fec:	c3                   	retq   
